
CS4345_test.elf:     file format elf32-littlearm

Sections:
Idx Name          Size      VMA       LMA       File off  Algn
  0 .isr_vector   00000298  08000000  08000000  00010000  2**0
                  CONTENTS, ALLOC, LOAD, READONLY, DATA
  1 .text         000047bc  08000298  08000298  00010298  2**3
                  CONTENTS, ALLOC, LOAD, READONLY, CODE
  2 .rodata       000001e8  08004a58  08004a58  00014a58  2**3
                  CONTENTS, ALLOC, LOAD, READONLY, DATA
  3 .ARM.extab    00000000  08004c40  08004c40  00020010  2**0
                  CONTENTS
  4 .ARM          00000000  08004c40  08004c40  00020010  2**0
                  CONTENTS
  5 .preinit_array 00000000  08004c40  08004c40  00020010  2**0
                  CONTENTS, ALLOC, LOAD, DATA
  6 .init_array   00000004  08004c40  08004c40  00014c40  2**2
                  CONTENTS, ALLOC, LOAD, DATA
  7 .fini_array   00000004  08004c44  08004c44  00014c44  2**2
                  CONTENTS, ALLOC, LOAD, DATA
  8 .data         00000010  24000000  08004c48  00020000  2**2
                  CONTENTS, ALLOC, LOAD, DATA
  9 .bss          00007198  24000010  08004c58  00020010  2**2
                  ALLOC
 10 ._user_heap_stack 00000600  240071a8  08004c58  000271a8  2**0
                  ALLOC
 11 .ARM.attributes 0000002e  00000000  00000000  00020010  2**0
                  CONTENTS, READONLY
 12 .comment      00000053  00000000  00000000  0002003e  2**0
                  CONTENTS, READONLY
 13 .debug_frame  000001cc  00000000  00000000  00020094  2**2
                  CONTENTS, READONLY, DEBUGGING, OCTETS

Disassembly of section .text:

08000298 <__do_global_dtors_aux>:
 8000298:	b510      	push	{r4, lr}
 800029a:	4c05      	ldr	r4, [pc, #20]	; (80002b0 <__do_global_dtors_aux+0x18>)
 800029c:	7823      	ldrb	r3, [r4, #0]
 800029e:	b933      	cbnz	r3, 80002ae <__do_global_dtors_aux+0x16>
 80002a0:	4b04      	ldr	r3, [pc, #16]	; (80002b4 <__do_global_dtors_aux+0x1c>)
 80002a2:	b113      	cbz	r3, 80002aa <__do_global_dtors_aux+0x12>
 80002a4:	4804      	ldr	r0, [pc, #16]	; (80002b8 <__do_global_dtors_aux+0x20>)
 80002a6:	f3af 8000 	nop.w
 80002aa:	2301      	movs	r3, #1
 80002ac:	7023      	strb	r3, [r4, #0]
 80002ae:	bd10      	pop	{r4, pc}
 80002b0:	24000010 	.word	0x24000010
 80002b4:	00000000 	.word	0x00000000
 80002b8:	08004a3c 	.word	0x08004a3c

080002bc <frame_dummy>:
 80002bc:	b508      	push	{r3, lr}
 80002be:	4b03      	ldr	r3, [pc, #12]	; (80002cc <frame_dummy+0x10>)
 80002c0:	b11b      	cbz	r3, 80002ca <frame_dummy+0xe>
 80002c2:	4903      	ldr	r1, [pc, #12]	; (80002d0 <frame_dummy+0x14>)
 80002c4:	4803      	ldr	r0, [pc, #12]	; (80002d4 <frame_dummy+0x18>)
 80002c6:	f3af 8000 	nop.w
 80002ca:	bd08      	pop	{r3, pc}
 80002cc:	00000000 	.word	0x00000000
 80002d0:	24000014 	.word	0x24000014
 80002d4:	08004a3c 	.word	0x08004a3c

080002d8 <SystemClock_Config>:
 80002d8:	b5f0      	push	{r4, r5, r6, r7, lr}
 80002da:	b09f      	sub	sp, #124	; 0x7c
 80002dc:	224c      	movs	r2, #76	; 0x4c
 80002de:	2100      	movs	r1, #0
 80002e0:	a80a      	add	r0, sp, #40	; 0x28
 80002e2:	f003 fdc3 	bl	8003e6c <memset>
 80002e6:	2220      	movs	r2, #32
 80002e8:	2100      	movs	r1, #0
 80002ea:	a802      	add	r0, sp, #8
 80002ec:	f003 fdbe 	bl	8003e6c <memset>
 80002f0:	2002      	movs	r0, #2
 80002f2:	f000 ff45 	bl	8001180 <HAL_PWREx_ConfigSupply>
 80002f6:	4923      	ldr	r1, [pc, #140]	; (8000384 <SystemClock_Config+0xac>)
 80002f8:	2300      	movs	r3, #0
 80002fa:	9301      	str	r3, [sp, #4]
 80002fc:	6ac8      	ldr	r0, [r1, #44]	; 0x2c
 80002fe:	4b22      	ldr	r3, [pc, #136]	; (8000388 <SystemClock_Config+0xb0>)
 8000300:	f020 0001 	bic.w	r0, r0, #1
 8000304:	461a      	mov	r2, r3
 8000306:	62c8      	str	r0, [r1, #44]	; 0x2c
 8000308:	6ac9      	ldr	r1, [r1, #44]	; 0x2c
 800030a:	f001 0101 	and.w	r1, r1, #1
 800030e:	9101      	str	r1, [sp, #4]
 8000310:	6999      	ldr	r1, [r3, #24]
 8000312:	f441 4140 	orr.w	r1, r1, #49152	; 0xc000
 8000316:	6199      	str	r1, [r3, #24]
 8000318:	699b      	ldr	r3, [r3, #24]
 800031a:	f403 4340 	and.w	r3, r3, #49152	; 0xc000
 800031e:	9301      	str	r3, [sp, #4]
 8000320:	9b01      	ldr	r3, [sp, #4]
 8000322:	6993      	ldr	r3, [r2, #24]
 8000324:	049b      	lsls	r3, r3, #18
 8000326:	d5fc      	bpl.n	8000322 <SystemClock_Config+0x4a>
 8000328:	2240      	movs	r2, #64	; 0x40
 800032a:	2308      	movs	r3, #8
 800032c:	2402      	movs	r4, #2
 800032e:	2601      	movs	r6, #1
 8000330:	9216      	str	r2, [sp, #88]	; 0x58
 8000332:	f44f 3780 	mov.w	r7, #65536	; 0x10000
 8000336:	220c      	movs	r2, #12
 8000338:	9318      	str	r3, [sp, #96]	; 0x60
 800033a:	2300      	movs	r3, #0
 800033c:	a80a      	add	r0, sp, #40	; 0x28
 800033e:	9415      	str	r4, [sp, #84]	; 0x54
 8000340:	2540      	movs	r5, #64	; 0x40
 8000342:	9417      	str	r4, [sp, #92]	; 0x5c
 8000344:	9419      	str	r4, [sp, #100]	; 0x64
 8000346:	931c      	str	r3, [sp, #112]	; 0x70
 8000348:	e9cd 231a 	strd	r2, r3, [sp, #104]	; 0x68
 800034c:	e9cd 670a 	strd	r6, r7, [sp, #40]	; 0x28
 8000350:	e9cd 4413 	strd	r4, r4, [sp, #76]	; 0x4c
 8000354:	f000 ffbe 	bl	80012d4 <HAL_RCC_OscConfig>
 8000358:	2200      	movs	r2, #0
 800035a:	2308      	movs	r3, #8
 800035c:	4621      	mov	r1, r4
 800035e:	263f      	movs	r6, #63	; 0x3f
 8000360:	2703      	movs	r7, #3
 8000362:	2440      	movs	r4, #64	; 0x40
 8000364:	a802      	add	r0, sp, #8
 8000366:	e9cd 2304 	strd	r2, r3, [sp, #16]
 800036a:	f44f 6280 	mov.w	r2, #1024	; 0x400
 800036e:	2340      	movs	r3, #64	; 0x40
 8000370:	e9cd 6702 	strd	r6, r7, [sp, #8]
 8000374:	e9cd 4506 	strd	r4, r5, [sp, #24]
 8000378:	e9cd 2308 	strd	r2, r3, [sp, #32]
 800037c:	f001 fb40 	bl	8001a00 <HAL_RCC_ClockConfig>
 8000380:	b01f      	add	sp, #124	; 0x7c
 8000382:	bdf0      	pop	{r4, r5, r6, r7, pc}
 8000384:	58000400 	.word	0x58000400
 8000388:	58024800 	.word	0x58024800

0800038c <main>:
 800038c:	b580      	push	{r7, lr}
 800038e:	4f6b      	ldr	r7, [pc, #428]	; (800053c <main+0x1b0>)
 8000390:	b09e      	sub	sp, #120	; 0x78
 8000392:	f000 faf3 	bl	800097c <HAL_Init>
 8000396:	2503      	movs	r5, #3
 8000398:	f7ff ff9e 	bl	80002d8 <SystemClock_Config>
 800039c:	f8d7 30e0 	ldr.w	r3, [r7, #224]	; 0xe0
 80003a0:	2200      	movs	r2, #0
 80003a2:	2110      	movs	r1, #16
 80003a4:	f043 0301 	orr.w	r3, r3, #1
 80003a8:	4865      	ldr	r0, [pc, #404]	; (8000540 <main+0x1b4>)
 80003aa:	4614      	mov	r4, r2
 80003ac:	4e65      	ldr	r6, [pc, #404]	; (8000544 <main+0x1b8>)
 80003ae:	f8c7 30e0 	str.w	r3, [r7, #224]	; 0xe0
 80003b2:	f04f 0800 	mov.w	r8, #0
 80003b6:	f8d7 30e0 	ldr.w	r3, [r7, #224]	; 0xe0
 80003ba:	f04f 0900 	mov.w	r9, #0
 80003be:	f003 0301 	and.w	r3, r3, #1
 80003c2:	9301      	str	r3, [sp, #4]
 80003c4:	9b01      	ldr	r3, [sp, #4]
 80003c6:	f000 fcc5 	bl	8000d54 <HAL_GPIO_WritePin>
 80003ca:	4622      	mov	r2, r4
 80003cc:	2120      	movs	r1, #32
 80003ce:	485c      	ldr	r0, [pc, #368]	; (8000540 <main+0x1b4>)
 80003d0:	f000 fcc0 	bl	8000d54 <HAL_GPIO_WritePin>
 80003d4:	4622      	mov	r2, r4
 80003d6:	2140      	movs	r1, #64	; 0x40
 80003d8:	4859      	ldr	r0, [pc, #356]	; (8000540 <main+0x1b4>)
 80003da:	f000 fcbb 	bl	8000d54 <HAL_GPIO_WritePin>
 80003de:	4622      	mov	r2, r4
 80003e0:	2180      	movs	r1, #128	; 0x80
 80003e2:	4857      	ldr	r0, [pc, #348]	; (8000540 <main+0x1b4>)
 80003e4:	f000 fcb6 	bl	8000d54 <HAL_GPIO_WritePin>
 80003e8:	22f0      	movs	r2, #240	; 0xf0
 80003ea:	2301      	movs	r3, #1
 80003ec:	a904      	add	r1, sp, #16
 80003ee:	4854      	ldr	r0, [pc, #336]	; (8000540 <main+0x1b4>)
 80003f0:	9507      	str	r5, [sp, #28]
 80003f2:	4d55      	ldr	r5, [pc, #340]	; (8000548 <main+0x1bc>)
 80003f4:	e9cd 2304 	strd	r2, r3, [sp, #16]
 80003f8:	f000 fb8e 	bl	8000b18 <HAL_GPIO_Init>
 80003fc:	f44f 707a 	mov.w	r0, #1000	; 0x3e8
 8000400:	f000 fafe 	bl	8000a00 <HAL_Delay>
 8000404:	f8d7 30e0 	ldr.w	r3, [r7, #224]	; 0xe0
 8000408:	4621      	mov	r1, r4
 800040a:	222c      	movs	r2, #44	; 0x2c
 800040c:	f043 0380 	orr.w	r3, r3, #128	; 0x80
 8000410:	a812      	add	r0, sp, #72	; 0x48
 8000412:	f8c7 30e0 	str.w	r3, [r7, #224]	; 0xe0
 8000416:	f8d7 30e0 	ldr.w	r3, [r7, #224]	; 0xe0
 800041a:	f003 0380 	and.w	r3, r3, #128	; 0x80
 800041e:	9302      	str	r3, [sp, #8]
 8000420:	9b02      	ldr	r3, [sp, #8]
 8000422:	f8d7 30e0 	ldr.w	r3, [r7, #224]	; 0xe0
 8000426:	f043 0301 	orr.w	r3, r3, #1
 800042a:	f8c7 30e0 	str.w	r3, [r7, #224]	; 0xe0
 800042e:	f8d7 30e0 	ldr.w	r3, [r7, #224]	; 0xe0
 8000432:	940a      	str	r4, [sp, #40]	; 0x28
 8000434:	f003 0301 	and.w	r3, r3, #1
 8000438:	4f44      	ldr	r7, [pc, #272]	; (800054c <main+0x1c0>)
 800043a:	9303      	str	r3, [sp, #12]
 800043c:	9b03      	ldr	r3, [sp, #12]
 800043e:	e9cd 440b 	strd	r4, r4, [sp, #44]	; 0x2c
 8000442:	e9cd 440d 	strd	r4, r4, [sp, #52]	; 0x34
 8000446:	e9cd 440f 	strd	r4, r4, [sp, #60]	; 0x3c
 800044a:	f003 fd0f 	bl	8003e6c <memset>
 800044e:	f240 33ff 	movw	r3, #1023	; 0x3ff
 8000452:	4a3f      	ldr	r2, [pc, #252]	; (8000550 <main+0x1c4>)
 8000454:	4630      	mov	r0, r6
 8000456:	60f3      	str	r3, [r6, #12]
 8000458:	6032      	str	r2, [r6, #0]
 800045a:	61b4      	str	r4, [r6, #24]
 800045c:	e9c6 4401 	strd	r4, r4, [r6, #4]
 8000460:	e9c6 4404 	strd	r4, r4, [r6, #16]
 8000464:	f002 fe8c 	bl	8003180 <HAL_TIM_Base_Init>
 8000468:	4630      	mov	r0, r6
 800046a:	f002 ff8f 	bl	800338c <HAL_TIM_OC_Init>
 800046e:	a90a      	add	r1, sp, #40	; 0x28
 8000470:	4622      	mov	r2, r4
 8000472:	4630      	mov	r0, r6
 8000474:	9410      	str	r4, [sp, #64]	; 0x40
 8000476:	e9cd 890a 	strd	r8, r9, [sp, #40]	; 0x28
 800047a:	e9cd 890c 	strd	r8, r9, [sp, #48]	; 0x30
 800047e:	e9cd 890e 	strd	r8, r9, [sp, #56]	; 0x38
 8000482:	f003 fa8d 	bl	80039a0 <HAL_TIM_OC_ConfigChannel>
 8000486:	2200      	movs	r2, #0
 8000488:	f44f 5300 	mov.w	r3, #8192	; 0x2000
 800048c:	a912      	add	r1, sp, #72	; 0x48
 800048e:	4630      	mov	r0, r6
 8000490:	9418      	str	r4, [sp, #96]	; 0x60
 8000492:	941c      	str	r4, [sp, #112]	; 0x70
 8000494:	e9cd 8912 	strd	r8, r9, [sp, #72]	; 0x48
 8000498:	e9cd 8914 	strd	r8, r9, [sp, #80]	; 0x50
 800049c:	e9cd 2316 	strd	r2, r3, [sp, #88]	; 0x58
 80004a0:	f003 fc72 	bl	8003d88 <HAL_TIMEx_ConfigBreakDeadTime>
 80004a4:	482b      	ldr	r0, [pc, #172]	; (8000554 <main+0x1c8>)
 80004a6:	f04f 0e04 	mov.w	lr, #4
 80004aa:	f04f 0c10 	mov.w	ip, #16
 80004ae:	f44f 7180 	mov.w	r1, #256	; 0x100
 80004b2:	4a29      	ldr	r2, [pc, #164]	; (8000558 <main+0x1cc>)
 80004b4:	f44f 5300 	mov.w	r3, #8192	; 0x2000
 80004b8:	6028      	str	r0, [r5, #0]
 80004ba:	4628      	mov	r0, r5
 80004bc:	60e9      	str	r1, [r5, #12]
 80004be:	616a      	str	r2, [r5, #20]
 80004c0:	f04f 0860 	mov.w	r8, #96	; 0x60
 80004c4:	622b      	str	r3, [r5, #32]
 80004c6:	f04f 0907 	mov.w	r9, #7
 80004ca:	612c      	str	r4, [r5, #16]
 80004cc:	e9c5 ec01 	strd	lr, ip, [r5, #4]
 80004d0:	e9c5 4406 	strd	r4, r4, [r5, #24]
 80004d4:	e9c5 4409 	strd	r4, r4, [r5, #36]	; 0x24
 80004d8:	f000 fc40 	bl	8000d5c <HAL_I2S_Init>
 80004dc:	230f      	movs	r3, #15
 80004de:	4a1f      	ldr	r2, [pc, #124]	; (800055c <main+0x1d0>)
 80004e0:	4638      	mov	r0, r7
 80004e2:	60fb      	str	r3, [r7, #12]
 80004e4:	603a      	str	r2, [r7, #0]
 80004e6:	9418      	str	r4, [sp, #96]	; 0x60
 80004e8:	613c      	str	r4, [r7, #16]
 80004ea:	61bc      	str	r4, [r7, #24]
 80004ec:	e9cd 4412 	strd	r4, r4, [sp, #72]	; 0x48
 80004f0:	e9cd 4414 	strd	r4, r4, [sp, #80]	; 0x50
 80004f4:	e9cd 4416 	strd	r4, r4, [sp, #88]	; 0x58
 80004f8:	e9c7 4401 	strd	r4, r4, [r7, #4]
 80004fc:	f002 fe40 	bl	8003180 <HAL_TIM_Base_Init>
 8000500:	4638      	mov	r0, r7
 8000502:	f002 fff3 	bl	80034ec <HAL_TIM_PWM_Init>
 8000506:	4622      	mov	r2, r4
 8000508:	a912      	add	r1, sp, #72	; 0x48
 800050a:	4638      	mov	r0, r7
 800050c:	9414      	str	r4, [sp, #80]	; 0x50
 800050e:	9416      	str	r4, [sp, #88]	; 0x58
 8000510:	e9cd 8912 	strd	r8, r9, [sp, #72]	; 0x48
 8000514:	f003 fb12 	bl	8003b3c <HAL_TIM_PWM_ConfigChannel>
 8000518:	4638      	mov	r0, r7
 800051a:	f000 f925 	bl	8000768 <HAL_TIM_MspPostInit>
 800051e:	4628      	mov	r0, r5
 8000520:	f000 fc1c 	bl	8000d5c <HAL_I2S_Init>
 8000524:	4621      	mov	r1, r4
 8000526:	4638      	mov	r0, r7
 8000528:	f003 f88e 	bl	8003648 <HAL_TIM_PWM_Start>
 800052c:	2064      	movs	r0, #100	; 0x64
 800052e:	f000 fa67 	bl	8000a00 <HAL_Delay>
 8000532:	4630      	mov	r0, r6
 8000534:	f002 fed2 	bl	80032dc <HAL_TIM_Base_Start_IT>
 8000538:	e7fe      	b.n	8000538 <main+0x1ac>
 800053a:	bf00      	nop
 800053c:	58024400 	.word	0x58024400
 8000540:	58020000 	.word	0x58020000
 8000544:	24000030 	.word	0x24000030
 8000548:	24007150 	.word	0x24007150
 800054c:	24000084 	.word	0x24000084
 8000550:	40014800 	.word	0x40014800
 8000554:	40013000 	.word	0x40013000
 8000558:	0002ee00 	.word	0x0002ee00
 800055c:	40001c00 	.word	0x40001c00

08000560 <HAL_TIM_PeriodElapsedCallback>:
 8000560:	4b2b      	ldr	r3, [pc, #172]	; (8000610 <HAL_TIM_PeriodElapsedCallback+0xb0>)
 8000562:	4283      	cmp	r3, r0
 8000564:	d000      	beq.n	8000568 <HAL_TIM_PeriodElapsedCallback+0x8>
 8000566:	4770      	bx	lr
 8000568:	b570      	push	{r4, r5, r6, lr}
 800056a:	4e2a      	ldr	r6, [pc, #168]	; (8000614 <HAL_TIM_PeriodElapsedCallback+0xb4>)
 800056c:	eddf 7a2a 	vldr	s15, [pc, #168]	; 8000618 <HAL_TIM_PeriodElapsedCallback+0xb8>
 8000570:	8835      	ldrh	r5, [r6, #0]
 8000572:	ee07 5a10 	vmov	s14, r5
 8000576:	ed2d 8b02 	vpush	{d8}
 800057a:	eeb8 8ac7 	vcvt.f32.s32	s16, s14
 800057e:	ed9f 0b1c 	vldr	d0, [pc, #112]	; 80005f0 <HAL_TIM_PeriodElapsedCallback+0x90>
 8000582:	ee28 8a27 	vmul.f32	s16, s16, s15
 8000586:	eeb7 8ac8 	vcvt.f64.f32	d8, s16
 800058a:	ee28 0b00 	vmul.f64	d0, d8, d0
 800058e:	f003 fc77 	bl	8003e80 <sin>
 8000592:	eeb5 0bc0 	vcmpe.f64	d0, #0.0
 8000596:	ed9f 0b18 	vldr	d0, [pc, #96]	; 80005f8 <HAL_TIM_PeriodElapsedCallback+0x98>
 800059a:	eef1 fa10 	vmrs	APSR_nzcv, fpscr
 800059e:	ee28 0b00 	vmul.f64	d0, d8, d0
 80005a2:	db17      	blt.n	80005d4 <HAL_TIM_PeriodElapsedCallback+0x74>
 80005a4:	f003 fc6c 	bl	8003e80 <sin>
 80005a8:	ed9f 7b15 	vldr	d7, [pc, #84]	; 8000600 <HAL_TIM_PeriodElapsedCallback+0xa0>
 80005ac:	ee20 0b07 	vmul.f64	d0, d0, d7
 80005b0:	eefc 7bc0 	vcvt.u32.f64	s15, d0
 80005b4:	ee17 4a90 	vmov	r4, s15
 80005b8:	3501      	adds	r5, #1
 80005ba:	4918      	ldr	r1, [pc, #96]	; (800061c <HAL_TIM_PeriodElapsedCallback+0xbc>)
 80005bc:	2300      	movs	r3, #0
 80005be:	2202      	movs	r2, #2
 80005c0:	8035      	strh	r5, [r6, #0]
 80005c2:	4817      	ldr	r0, [pc, #92]	; (8000620 <HAL_TIM_PeriodElapsedCallback+0xc0>)
 80005c4:	ecbd 8b02 	vpop	{d8}
 80005c8:	e9c1 4400 	strd	r4, r4, [r1]
 80005cc:	e8bd 4070 	ldmia.w	sp!, {r4, r5, r6, lr}
 80005d0:	f000 bc96 	b.w	8000f00 <HAL_I2S_Transmit>
 80005d4:	f003 fc54 	bl	8003e80 <sin>
 80005d8:	ed9f 6b09 	vldr	d6, [pc, #36]	; 8000600 <HAL_TIM_PeriodElapsedCallback+0xa0>
 80005dc:	ed9f 7b0a 	vldr	d7, [pc, #40]	; 8000608 <HAL_TIM_PeriodElapsedCallback+0xa8>
 80005e0:	eea0 7b06 	vfma.f64	d7, d0, d6
 80005e4:	eefc 7bc7 	vcvt.u32.f64	s15, d7
 80005e8:	ee17 4a90 	vmov	r4, s15
 80005ec:	e7e4      	b.n	80005b8 <HAL_TIM_PeriodElapsedCallback+0x58>
 80005ee:	bf00      	nop
 80005f0:	64ef6de1 	.word	0x64ef6de1
 80005f4:	3fab8081 	.word	0x3fab8081
 80005f8:	e710a929 	.word	0xe710a929
 80005fc:	3f338e94 	.word	0x3f338e94
 8000600:	00000000 	.word	0x00000000
 8000604:	411ffffc 	.word	0x411ffffc
 8000608:	e0000000 	.word	0xe0000000
 800060c:	416fffff 	.word	0x416fffff
 8000610:	24000030 	.word	0x24000030
 8000614:	2400002c 	.word	0x2400002c
 8000618:	447a0000 	.word	0x447a0000
 800061c:	2400007c 	.word	0x2400007c
 8000620:	24007150 	.word	0x24007150

08000624 <Error_Handler>:
 8000624:	4770      	bx	lr
 8000626:	bf00      	nop

08000628 <HAL_MspInit>:
 8000628:	4b07      	ldr	r3, [pc, #28]	; (8000648 <HAL_MspInit+0x20>)
 800062a:	b082      	sub	sp, #8
 800062c:	f8d3 20f4 	ldr.w	r2, [r3, #244]	; 0xf4
 8000630:	f042 0202 	orr.w	r2, r2, #2
 8000634:	f8c3 20f4 	str.w	r2, [r3, #244]	; 0xf4
 8000638:	f8d3 30f4 	ldr.w	r3, [r3, #244]	; 0xf4
 800063c:	f003 0302 	and.w	r3, r3, #2
 8000640:	9301      	str	r3, [sp, #4]
 8000642:	9b01      	ldr	r3, [sp, #4]
 8000644:	b002      	add	sp, #8
 8000646:	4770      	bx	lr
 8000648:	58024400 	.word	0x58024400

0800064c <HAL_I2S_MspInit>:
 800064c:	b5f0      	push	{r4, r5, r6, r7, lr}
 800064e:	2400      	movs	r4, #0
 8000650:	b0b7      	sub	sp, #220	; 0xdc
 8000652:	4605      	mov	r5, r0
 8000654:	22bc      	movs	r2, #188	; 0xbc
 8000656:	4621      	mov	r1, r4
 8000658:	a807      	add	r0, sp, #28
 800065a:	9406      	str	r4, [sp, #24]
 800065c:	e9cd 4402 	strd	r4, r4, [sp, #8]
 8000660:	e9cd 4404 	strd	r4, r4, [sp, #16]
 8000664:	f003 fc02 	bl	8003e6c <memset>
 8000668:	682a      	ldr	r2, [r5, #0]
 800066a:	4b20      	ldr	r3, [pc, #128]	; (80006ec <HAL_I2S_MspInit+0xa0>)
 800066c:	429a      	cmp	r2, r3
 800066e:	d001      	beq.n	8000674 <HAL_I2S_MspInit+0x28>
 8000670:	b037      	add	sp, #220	; 0xdc
 8000672:	bdf0      	pop	{r4, r5, r6, r7, pc}
 8000674:	f44f 5380 	mov.w	r3, #4096	; 0x1000
 8000678:	a807      	add	r0, sp, #28
 800067a:	941e      	str	r4, [sp, #120]	; 0x78
 800067c:	9307      	str	r3, [sp, #28]
 800067e:	f001 fc21 	bl	8001ec4 <HAL_RCCEx_PeriphCLKConfig>
 8000682:	bb80      	cbnz	r0, 80006e6 <HAL_I2S_MspInit+0x9a>
 8000684:	4b1a      	ldr	r3, [pc, #104]	; (80006f0 <HAL_I2S_MspInit+0xa4>)
 8000686:	2605      	movs	r6, #5
 8000688:	24b0      	movs	r4, #176	; 0xb0
 800068a:	2502      	movs	r5, #2
 800068c:	f8d3 20f0 	ldr.w	r2, [r3, #240]	; 0xf0
 8000690:	2703      	movs	r7, #3
 8000692:	a902      	add	r1, sp, #8
 8000694:	4817      	ldr	r0, [pc, #92]	; (80006f4 <HAL_I2S_MspInit+0xa8>)
 8000696:	f442 5280 	orr.w	r2, r2, #4096	; 0x1000
 800069a:	f8c3 20f0 	str.w	r2, [r3, #240]	; 0xf0
 800069e:	f8d3 20f0 	ldr.w	r2, [r3, #240]	; 0xf0
 80006a2:	f402 5280 	and.w	r2, r2, #4096	; 0x1000
 80006a6:	9200      	str	r2, [sp, #0]
 80006a8:	9a00      	ldr	r2, [sp, #0]
 80006aa:	f8d3 20e0 	ldr.w	r2, [r3, #224]	; 0xe0
 80006ae:	f042 0201 	orr.w	r2, r2, #1
 80006b2:	f8c3 20e0 	str.w	r2, [r3, #224]	; 0xe0
 80006b6:	f8d3 30e0 	ldr.w	r3, [r3, #224]	; 0xe0
 80006ba:	9606      	str	r6, [sp, #24]
 80006bc:	2602      	movs	r6, #2
 80006be:	f003 0301 	and.w	r3, r3, #1
 80006c2:	9301      	str	r3, [sp, #4]
 80006c4:	9b01      	ldr	r3, [sp, #4]
 80006c6:	e9cd 4502 	strd	r4, r5, [sp, #8]
 80006ca:	e9cd 6704 	strd	r6, r7, [sp, #16]
 80006ce:	f000 fa23 	bl	8000b18 <HAL_GPIO_Init>
 80006d2:	2200      	movs	r2, #0
 80006d4:	2023      	movs	r0, #35	; 0x23
 80006d6:	4611      	mov	r1, r2
 80006d8:	f000 f9be 	bl	8000a58 <HAL_NVIC_SetPriority>
 80006dc:	2023      	movs	r0, #35	; 0x23
 80006de:	f000 f9f5 	bl	8000acc <HAL_NVIC_EnableIRQ>
 80006e2:	b037      	add	sp, #220	; 0xdc
 80006e4:	bdf0      	pop	{r4, r5, r6, r7, pc}
 80006e6:	f7ff ff9d 	bl	8000624 <Error_Handler>
 80006ea:	e7cb      	b.n	8000684 <HAL_I2S_MspInit+0x38>
 80006ec:	40013000 	.word	0x40013000
 80006f0:	58024400 	.word	0x58024400
 80006f4:	58020000 	.word	0x58020000

080006f8 <HAL_TIM_Base_MspInit>:
 80006f8:	4a18      	ldr	r2, [pc, #96]	; (800075c <HAL_TIM_Base_MspInit+0x64>)
 80006fa:	6803      	ldr	r3, [r0, #0]
 80006fc:	4293      	cmp	r3, r2
 80006fe:	b510      	push	{r4, lr}
 8000700:	b082      	sub	sp, #8
 8000702:	d004      	beq.n	800070e <HAL_TIM_Base_MspInit+0x16>
 8000704:	4a16      	ldr	r2, [pc, #88]	; (8000760 <HAL_TIM_Base_MspInit+0x68>)
 8000706:	4293      	cmp	r3, r2
 8000708:	d010      	beq.n	800072c <HAL_TIM_Base_MspInit+0x34>
 800070a:	b002      	add	sp, #8
 800070c:	bd10      	pop	{r4, pc}
 800070e:	4b15      	ldr	r3, [pc, #84]	; (8000764 <HAL_TIM_Base_MspInit+0x6c>)
 8000710:	f8d3 20e8 	ldr.w	r2, [r3, #232]	; 0xe8
 8000714:	f042 0280 	orr.w	r2, r2, #128	; 0x80
 8000718:	f8c3 20e8 	str.w	r2, [r3, #232]	; 0xe8
 800071c:	f8d3 30e8 	ldr.w	r3, [r3, #232]	; 0xe8
 8000720:	f003 0380 	and.w	r3, r3, #128	; 0x80
 8000724:	9300      	str	r3, [sp, #0]
 8000726:	9b00      	ldr	r3, [sp, #0]
 8000728:	b002      	add	sp, #8
 800072a:	bd10      	pop	{r4, pc}
 800072c:	4b0d      	ldr	r3, [pc, #52]	; (8000764 <HAL_TIM_Base_MspInit+0x6c>)
 800072e:	2200      	movs	r2, #0
 8000730:	2076      	movs	r0, #118	; 0x76
 8000732:	f8d3 40f0 	ldr.w	r4, [r3, #240]	; 0xf0
 8000736:	4611      	mov	r1, r2
 8000738:	f444 2480 	orr.w	r4, r4, #262144	; 0x40000
 800073c:	f8c3 40f0 	str.w	r4, [r3, #240]	; 0xf0
 8000740:	f8d3 30f0 	ldr.w	r3, [r3, #240]	; 0xf0
 8000744:	f403 2380 	and.w	r3, r3, #262144	; 0x40000
 8000748:	9301      	str	r3, [sp, #4]
 800074a:	9b01      	ldr	r3, [sp, #4]
 800074c:	f000 f984 	bl	8000a58 <HAL_NVIC_SetPriority>
 8000750:	2076      	movs	r0, #118	; 0x76
 8000752:	b002      	add	sp, #8
 8000754:	e8bd 4010 	ldmia.w	sp!, {r4, lr}
 8000758:	f000 b9b8 	b.w	8000acc <HAL_NVIC_EnableIRQ>
 800075c:	40001c00 	.word	0x40001c00
 8000760:	40014800 	.word	0x40014800
 8000764:	58024400 	.word	0x58024400

08000768 <HAL_TIM_MspPostInit>:
 8000768:	4a15      	ldr	r2, [pc, #84]	; (80007c0 <HAL_TIM_MspPostInit+0x58>)
 800076a:	2300      	movs	r3, #0
 800076c:	6801      	ldr	r1, [r0, #0]
 800076e:	b5f0      	push	{r4, r5, r6, r7, lr}
 8000770:	4291      	cmp	r1, r2
 8000772:	b089      	sub	sp, #36	; 0x24
 8000774:	e9cd 3302 	strd	r3, r3, [sp, #8]
 8000778:	e9cd 3304 	strd	r3, r3, [sp, #16]
 800077c:	9306      	str	r3, [sp, #24]
 800077e:	d001      	beq.n	8000784 <HAL_TIM_MspPostInit+0x1c>
 8000780:	b009      	add	sp, #36	; 0x24
 8000782:	bdf0      	pop	{r4, r5, r6, r7, pc}
 8000784:	4b0f      	ldr	r3, [pc, #60]	; (80007c4 <HAL_TIM_MspPostInit+0x5c>)
 8000786:	2609      	movs	r6, #9
 8000788:	2440      	movs	r4, #64	; 0x40
 800078a:	2502      	movs	r5, #2
 800078c:	f8d3 20e0 	ldr.w	r2, [r3, #224]	; 0xe0
 8000790:	a902      	add	r1, sp, #8
 8000792:	480d      	ldr	r0, [pc, #52]	; (80007c8 <HAL_TIM_MspPostInit+0x60>)
 8000794:	2703      	movs	r7, #3
 8000796:	f042 0201 	orr.w	r2, r2, #1
 800079a:	f8c3 20e0 	str.w	r2, [r3, #224]	; 0xe0
 800079e:	f8d3 30e0 	ldr.w	r3, [r3, #224]	; 0xe0
 80007a2:	9606      	str	r6, [sp, #24]
 80007a4:	2602      	movs	r6, #2
 80007a6:	f003 0301 	and.w	r3, r3, #1
 80007aa:	9301      	str	r3, [sp, #4]
 80007ac:	9b01      	ldr	r3, [sp, #4]
 80007ae:	e9cd 4502 	strd	r4, r5, [sp, #8]
 80007b2:	e9cd 6704 	strd	r6, r7, [sp, #16]
 80007b6:	f000 f9af 	bl	8000b18 <HAL_GPIO_Init>
 80007ba:	b009      	add	sp, #36	; 0x24
 80007bc:	bdf0      	pop	{r4, r5, r6, r7, pc}
 80007be:	bf00      	nop
 80007c0:	40001c00 	.word	0x40001c00
 80007c4:	58024400 	.word	0x58024400
 80007c8:	58020000 	.word	0x58020000

080007cc <NMI_Handler>:
 80007cc:	4770      	bx	lr
 80007ce:	bf00      	nop

080007d0 <HardFault_Handler>:
 80007d0:	e7fe      	b.n	80007d0 <HardFault_Handler>
 80007d2:	bf00      	nop

080007d4 <MemManage_Handler>:
 80007d4:	e7fe      	b.n	80007d4 <MemManage_Handler>
 80007d6:	bf00      	nop

080007d8 <BusFault_Handler>:
 80007d8:	e7fe      	b.n	80007d8 <BusFault_Handler>
 80007da:	bf00      	nop

080007dc <UsageFault_Handler>:
 80007dc:	e7fe      	b.n	80007dc <UsageFault_Handler>
 80007de:	bf00      	nop

080007e0 <SVC_Handler>:
 80007e0:	4770      	bx	lr
 80007e2:	bf00      	nop

080007e4 <DebugMon_Handler>:
 80007e4:	4770      	bx	lr
 80007e6:	bf00      	nop

080007e8 <PendSV_Handler>:
 80007e8:	4770      	bx	lr
 80007ea:	bf00      	nop

080007ec <SysTick_Handler>:
 80007ec:	f000 b8f6 	b.w	80009dc <HAL_IncTick>

080007f0 <SPI1_IRQHandler>:
 80007f0:	4801      	ldr	r0, [pc, #4]	; (80007f8 <SPI1_IRQHandler+0x8>)
 80007f2:	f000 bc33 	b.w	800105c <HAL_I2S_IRQHandler>
 80007f6:	bf00      	nop
 80007f8:	24007150 	.word	0x24007150

080007fc <TIM17_IRQHandler>:
 80007fc:	4801      	ldr	r0, [pc, #4]	; (8000804 <TIM17_IRQHandler+0x8>)
 80007fe:	f002 bfd3 	b.w	80037a8 <HAL_TIM_IRQHandler>
 8000802:	bf00      	nop
 8000804:	24000030 	.word	0x24000030

08000808 <SystemInit>:
 8000808:	4929      	ldr	r1, [pc, #164]	; (80008b0 <SystemInit+0xa8>)
 800080a:	4a2a      	ldr	r2, [pc, #168]	; (80008b4 <SystemInit+0xac>)
 800080c:	f8d1 3088 	ldr.w	r3, [r1, #136]	; 0x88
 8000810:	f443 0370 	orr.w	r3, r3, #15728640	; 0xf00000
 8000814:	b410      	push	{r4}
 8000816:	f8c1 3088 	str.w	r3, [r1, #136]	; 0x88
 800081a:	6813      	ldr	r3, [r2, #0]
 800081c:	f003 030f 	and.w	r3, r3, #15
 8000820:	2b06      	cmp	r3, #6
 8000822:	d805      	bhi.n	8000830 <SystemInit+0x28>
 8000824:	6813      	ldr	r3, [r2, #0]
 8000826:	f023 030f 	bic.w	r3, r3, #15
 800082a:	f043 0307 	orr.w	r3, r3, #7
 800082e:	6013      	str	r3, [r2, #0]
 8000830:	4b21      	ldr	r3, [pc, #132]	; (80008b8 <SystemInit+0xb0>)
 8000832:	2400      	movs	r4, #0
 8000834:	4a21      	ldr	r2, [pc, #132]	; (80008bc <SystemInit+0xb4>)
 8000836:	6819      	ldr	r1, [r3, #0]
 8000838:	481e      	ldr	r0, [pc, #120]	; (80008b4 <SystemInit+0xac>)
 800083a:	f041 0101 	orr.w	r1, r1, #1
 800083e:	6019      	str	r1, [r3, #0]
 8000840:	611c      	str	r4, [r3, #16]
 8000842:	6819      	ldr	r1, [r3, #0]
 8000844:	400a      	ands	r2, r1
 8000846:	601a      	str	r2, [r3, #0]
 8000848:	6803      	ldr	r3, [r0, #0]
 800084a:	071b      	lsls	r3, r3, #28
 800084c:	d505      	bpl.n	800085a <SystemInit+0x52>
 800084e:	6803      	ldr	r3, [r0, #0]
 8000850:	f023 030f 	bic.w	r3, r3, #15
 8000854:	f043 0307 	orr.w	r3, r3, #7
 8000858:	6003      	str	r3, [r0, #0]
 800085a:	4b17      	ldr	r3, [pc, #92]	; (80008b8 <SystemInit+0xb0>)
 800085c:	2200      	movs	r2, #0
 800085e:	4918      	ldr	r1, [pc, #96]	; (80008c0 <SystemInit+0xb8>)
 8000860:	4c18      	ldr	r4, [pc, #96]	; (80008c4 <SystemInit+0xbc>)
 8000862:	4819      	ldr	r0, [pc, #100]	; (80008c8 <SystemInit+0xc0>)
 8000864:	619a      	str	r2, [r3, #24]
 8000866:	61da      	str	r2, [r3, #28]
 8000868:	621a      	str	r2, [r3, #32]
 800086a:	629c      	str	r4, [r3, #40]	; 0x28
 800086c:	62d8      	str	r0, [r3, #44]	; 0x2c
 800086e:	6319      	str	r1, [r3, #48]	; 0x30
 8000870:	635a      	str	r2, [r3, #52]	; 0x34
 8000872:	6399      	str	r1, [r3, #56]	; 0x38
 8000874:	63da      	str	r2, [r3, #60]	; 0x3c
 8000876:	6419      	str	r1, [r3, #64]	; 0x40
 8000878:	645a      	str	r2, [r3, #68]	; 0x44
 800087a:	6818      	ldr	r0, [r3, #0]
 800087c:	4c13      	ldr	r4, [pc, #76]	; (80008cc <SystemInit+0xc4>)
 800087e:	f420 2080 	bic.w	r0, r0, #262144	; 0x40000
 8000882:	4913      	ldr	r1, [pc, #76]	; (80008d0 <SystemInit+0xc8>)
 8000884:	6018      	str	r0, [r3, #0]
 8000886:	661a      	str	r2, [r3, #96]	; 0x60
 8000888:	6823      	ldr	r3, [r4, #0]
 800088a:	4019      	ands	r1, r3
 800088c:	f1b1 5f00 	cmp.w	r1, #536870912	; 0x20000000
 8000890:	d202      	bcs.n	8000898 <SystemInit+0x90>
 8000892:	4b10      	ldr	r3, [pc, #64]	; (80008d4 <SystemInit+0xcc>)
 8000894:	2201      	movs	r2, #1
 8000896:	601a      	str	r2, [r3, #0]
 8000898:	490f      	ldr	r1, [pc, #60]	; (80008d8 <SystemInit+0xd0>)
 800089a:	f243 00d2 	movw	r0, #12498	; 0x30d2
 800089e:	4b04      	ldr	r3, [pc, #16]	; (80008b0 <SystemInit+0xa8>)
 80008a0:	f04f 6200 	mov.w	r2, #134217728	; 0x8000000
 80008a4:	6008      	str	r0, [r1, #0]
 80008a6:	f85d 4b04 	ldr.w	r4, [sp], #4
 80008aa:	609a      	str	r2, [r3, #8]
 80008ac:	4770      	bx	lr
 80008ae:	bf00      	nop
 80008b0:	e000ed00 	.word	0xe000ed00
 80008b4:	52002000 	.word	0x52002000
 80008b8:	58024400 	.word	0x58024400
 80008bc:	eaf6ed7f 	.word	0xeaf6ed7f
 80008c0:	01010280 	.word	0x01010280
 80008c4:	02020200 	.word	0x02020200
 80008c8:	01ff0000 	.word	0x01ff0000
 80008cc:	5c001000 	.word	0x5c001000
 80008d0:	ffff0000 	.word	0xffff0000
 80008d4:	51008108 	.word	0x51008108
 80008d8:	52004000 	.word	0x52004000

080008dc <Reset_Handler>:
 80008dc:	f8df d034 	ldr.w	sp, [pc, #52]	; 8000914 <LoopFillZerobss+0x10>
 80008e0:	f7ff ff92 	bl	8000808 <SystemInit>
 80008e4:	2100      	movs	r1, #0
 80008e6:	e003      	b.n	80008f0 <LoopCopyDataInit>

080008e8 <CopyDataInit>:
 80008e8:	4b0b      	ldr	r3, [pc, #44]	; (8000918 <LoopFillZerobss+0x14>)
 80008ea:	585b      	ldr	r3, [r3, r1]
 80008ec:	5043      	str	r3, [r0, r1]
 80008ee:	3104      	adds	r1, #4

080008f0 <LoopCopyDataInit>:
 80008f0:	480a      	ldr	r0, [pc, #40]	; (800091c <LoopFillZerobss+0x18>)
 80008f2:	4b0b      	ldr	r3, [pc, #44]	; (8000920 <LoopFillZerobss+0x1c>)
 80008f4:	1842      	adds	r2, r0, r1
 80008f6:	429a      	cmp	r2, r3
 80008f8:	d3f6      	bcc.n	80008e8 <CopyDataInit>
 80008fa:	4a0a      	ldr	r2, [pc, #40]	; (8000924 <LoopFillZerobss+0x20>)
 80008fc:	e002      	b.n	8000904 <LoopFillZerobss>

080008fe <FillZerobss>:
 80008fe:	2300      	movs	r3, #0
 8000900:	f842 3b04 	str.w	r3, [r2], #4

08000904 <LoopFillZerobss>:
 8000904:	4b08      	ldr	r3, [pc, #32]	; (8000928 <LoopFillZerobss+0x24>)
 8000906:	429a      	cmp	r2, r3
 8000908:	d3f9      	bcc.n	80008fe <FillZerobss>
 800090a:	f003 fa8b 	bl	8003e24 <__libc_init_array>
 800090e:	f7ff fd3d 	bl	800038c <main>
 8000912:	4770      	bx	lr
 8000914:	24080000 	.word	0x24080000
 8000918:	08004c48 	.word	0x08004c48
 800091c:	24000000 	.word	0x24000000
 8000920:	24000010 	.word	0x24000010
 8000924:	24000010 	.word	0x24000010
 8000928:	240071a8 	.word	0x240071a8

0800092c <ADC3_IRQHandler>:
 800092c:	e7fe      	b.n	800092c <ADC3_IRQHandler>
	...

08000930 <HAL_InitTick>:
 8000930:	4b0f      	ldr	r3, [pc, #60]	; (8000970 <HAL_InitTick+0x40>)
 8000932:	781b      	ldrb	r3, [r3, #0]
 8000934:	b90b      	cbnz	r3, 800093a <HAL_InitTick+0xa>
 8000936:	2001      	movs	r0, #1
 8000938:	4770      	bx	lr
 800093a:	b510      	push	{r4, lr}
 800093c:	4604      	mov	r4, r0
 800093e:	f44f 707a 	mov.w	r0, #1000	; 0x3e8
 8000942:	4a0c      	ldr	r2, [pc, #48]	; (8000974 <HAL_InitTick+0x44>)
 8000944:	fbb0 f3f3 	udiv	r3, r0, r3
 8000948:	6810      	ldr	r0, [r2, #0]
 800094a:	fbb0 f0f3 	udiv	r0, r0, r3
 800094e:	f000 f8cb 	bl	8000ae8 <HAL_SYSTICK_Config>
 8000952:	2c0f      	cmp	r4, #15
 8000954:	d800      	bhi.n	8000958 <HAL_InitTick+0x28>
 8000956:	b108      	cbz	r0, 800095c <HAL_InitTick+0x2c>
 8000958:	2001      	movs	r0, #1
 800095a:	bd10      	pop	{r4, pc}
 800095c:	2200      	movs	r2, #0
 800095e:	4621      	mov	r1, r4
 8000960:	f04f 30ff 	mov.w	r0, #4294967295
 8000964:	f000 f878 	bl	8000a58 <HAL_NVIC_SetPriority>
 8000968:	4b03      	ldr	r3, [pc, #12]	; (8000978 <HAL_InitTick+0x48>)
 800096a:	2000      	movs	r0, #0
 800096c:	601c      	str	r4, [r3, #0]
 800096e:	bd10      	pop	{r4, pc}
 8000970:	24000008 	.word	0x24000008
 8000974:	24000000 	.word	0x24000000
 8000978:	2400000c 	.word	0x2400000c

0800097c <HAL_Init>:
 800097c:	b538      	push	{r3, r4, r5, lr}
 800097e:	2003      	movs	r0, #3
 8000980:	4c12      	ldr	r4, [pc, #72]	; (80009cc <HAL_Init+0x50>)
 8000982:	f000 f855 	bl	8000a30 <HAL_NVIC_SetPriorityGrouping>
 8000986:	4d12      	ldr	r5, [pc, #72]	; (80009d0 <HAL_Init+0x54>)
 8000988:	f000 ff9a 	bl	80018c0 <HAL_RCC_GetSysClockFreq>
 800098c:	4b11      	ldr	r3, [pc, #68]	; (80009d4 <HAL_Init+0x58>)
 800098e:	4602      	mov	r2, r0
 8000990:	2000      	movs	r0, #0
 8000992:	6999      	ldr	r1, [r3, #24]
 8000994:	699b      	ldr	r3, [r3, #24]
 8000996:	f3c1 2103 	ubfx	r1, r1, #8, #4
 800099a:	f003 030f 	and.w	r3, r3, #15
 800099e:	5c61      	ldrb	r1, [r4, r1]
 80009a0:	5ce3      	ldrb	r3, [r4, r3]
 80009a2:	f001 011f 	and.w	r1, r1, #31
 80009a6:	4c0c      	ldr	r4, [pc, #48]	; (80009d8 <HAL_Init+0x5c>)
 80009a8:	f003 031f 	and.w	r3, r3, #31
 80009ac:	40ca      	lsrs	r2, r1
 80009ae:	fa22 f303 	lsr.w	r3, r2, r3
 80009b2:	6022      	str	r2, [r4, #0]
 80009b4:	602b      	str	r3, [r5, #0]
 80009b6:	f7ff ffbb 	bl	8000930 <HAL_InitTick>
 80009ba:	b110      	cbz	r0, 80009c2 <HAL_Init+0x46>
 80009bc:	2401      	movs	r4, #1
 80009be:	4620      	mov	r0, r4
 80009c0:	bd38      	pop	{r3, r4, r5, pc}
 80009c2:	4604      	mov	r4, r0
 80009c4:	f7ff fe30 	bl	8000628 <HAL_MspInit>
 80009c8:	4620      	mov	r0, r4
 80009ca:	bd38      	pop	{r3, r4, r5, pc}
 80009cc:	08004a58 	.word	0x08004a58
 80009d0:	24000004 	.word	0x24000004
 80009d4:	58024400 	.word	0x58024400
 80009d8:	24000000 	.word	0x24000000

080009dc <HAL_IncTick>:
 80009dc:	4a03      	ldr	r2, [pc, #12]	; (80009ec <HAL_IncTick+0x10>)
 80009de:	4b04      	ldr	r3, [pc, #16]	; (80009f0 <HAL_IncTick+0x14>)
 80009e0:	6811      	ldr	r1, [r2, #0]
 80009e2:	781b      	ldrb	r3, [r3, #0]
 80009e4:	440b      	add	r3, r1
 80009e6:	6013      	str	r3, [r2, #0]
 80009e8:	4770      	bx	lr
 80009ea:	bf00      	nop
 80009ec:	240071a4 	.word	0x240071a4
 80009f0:	24000008 	.word	0x24000008

080009f4 <HAL_GetTick>:
 80009f4:	4b01      	ldr	r3, [pc, #4]	; (80009fc <HAL_GetTick+0x8>)
 80009f6:	6818      	ldr	r0, [r3, #0]
 80009f8:	4770      	bx	lr
 80009fa:	bf00      	nop
 80009fc:	240071a4 	.word	0x240071a4

08000a00 <HAL_Delay>:
 8000a00:	b538      	push	{r3, r4, r5, lr}
 8000a02:	4604      	mov	r4, r0
 8000a04:	f7ff fff6 	bl	80009f4 <HAL_GetTick>
 8000a08:	4605      	mov	r5, r0
 8000a0a:	1c63      	adds	r3, r4, #1
 8000a0c:	d002      	beq.n	8000a14 <HAL_Delay+0x14>
 8000a0e:	4b04      	ldr	r3, [pc, #16]	; (8000a20 <HAL_Delay+0x20>)
 8000a10:	781b      	ldrb	r3, [r3, #0]
 8000a12:	441c      	add	r4, r3
 8000a14:	f7ff ffee 	bl	80009f4 <HAL_GetTick>
 8000a18:	1b43      	subs	r3, r0, r5
 8000a1a:	42a3      	cmp	r3, r4
 8000a1c:	d3fa      	bcc.n	8000a14 <HAL_Delay+0x14>
 8000a1e:	bd38      	pop	{r3, r4, r5, pc}
 8000a20:	24000008 	.word	0x24000008

08000a24 <HAL_GetREVID>:
 8000a24:	4b01      	ldr	r3, [pc, #4]	; (8000a2c <HAL_GetREVID+0x8>)
 8000a26:	6818      	ldr	r0, [r3, #0]
 8000a28:	0c00      	lsrs	r0, r0, #16
 8000a2a:	4770      	bx	lr
 8000a2c:	5c001000 	.word	0x5c001000

08000a30 <HAL_NVIC_SetPriorityGrouping>:
 8000a30:	4907      	ldr	r1, [pc, #28]	; (8000a50 <HAL_NVIC_SetPriorityGrouping+0x20>)
 8000a32:	0200      	lsls	r0, r0, #8
 8000a34:	4b07      	ldr	r3, [pc, #28]	; (8000a54 <HAL_NVIC_SetPriorityGrouping+0x24>)
 8000a36:	68ca      	ldr	r2, [r1, #12]
 8000a38:	f400 60e0 	and.w	r0, r0, #1792	; 0x700
 8000a3c:	b410      	push	{r4}
 8000a3e:	f64f 04ff 	movw	r4, #63743	; 0xf8ff
 8000a42:	4022      	ands	r2, r4
 8000a44:	f85d 4b04 	ldr.w	r4, [sp], #4
 8000a48:	4310      	orrs	r0, r2
 8000a4a:	4303      	orrs	r3, r0
 8000a4c:	60cb      	str	r3, [r1, #12]
 8000a4e:	4770      	bx	lr
 8000a50:	e000ed00 	.word	0xe000ed00
 8000a54:	05fa0000 	.word	0x05fa0000

08000a58 <HAL_NVIC_SetPriority>:
 8000a58:	4b19      	ldr	r3, [pc, #100]	; (8000ac0 <HAL_NVIC_SetPriority+0x68>)
 8000a5a:	68db      	ldr	r3, [r3, #12]
 8000a5c:	f3c3 2302 	ubfx	r3, r3, #8, #3
 8000a60:	b430      	push	{r4, r5}
 8000a62:	f1c3 0507 	rsb	r5, r3, #7
 8000a66:	1d1c      	adds	r4, r3, #4
 8000a68:	2d04      	cmp	r5, #4
 8000a6a:	bf28      	it	cs
 8000a6c:	2504      	movcs	r5, #4
 8000a6e:	2c06      	cmp	r4, #6
 8000a70:	d919      	bls.n	8000aa6 <HAL_NVIC_SetPriority+0x4e>
 8000a72:	3b03      	subs	r3, #3
 8000a74:	f04f 34ff 	mov.w	r4, #4294967295
 8000a78:	409c      	lsls	r4, r3
 8000a7a:	ea22 0204 	bic.w	r2, r2, r4
 8000a7e:	f04f 34ff 	mov.w	r4, #4294967295
 8000a82:	2800      	cmp	r0, #0
 8000a84:	fa04 f405 	lsl.w	r4, r4, r5
 8000a88:	ea21 0104 	bic.w	r1, r1, r4
 8000a8c:	fa01 f103 	lsl.w	r1, r1, r3
 8000a90:	ea41 0102 	orr.w	r1, r1, r2
 8000a94:	db0a      	blt.n	8000aac <HAL_NVIC_SetPriority+0x54>
 8000a96:	0109      	lsls	r1, r1, #4
 8000a98:	4b0a      	ldr	r3, [pc, #40]	; (8000ac4 <HAL_NVIC_SetPriority+0x6c>)
 8000a9a:	b2c9      	uxtb	r1, r1
 8000a9c:	4403      	add	r3, r0
 8000a9e:	f883 1300 	strb.w	r1, [r3, #768]	; 0x300
 8000aa2:	bc30      	pop	{r4, r5}
 8000aa4:	4770      	bx	lr
 8000aa6:	2200      	movs	r2, #0
 8000aa8:	4613      	mov	r3, r2
 8000aaa:	e7e8      	b.n	8000a7e <HAL_NVIC_SetPriority+0x26>
 8000aac:	f000 000f 	and.w	r0, r0, #15
 8000ab0:	0109      	lsls	r1, r1, #4
 8000ab2:	4b05      	ldr	r3, [pc, #20]	; (8000ac8 <HAL_NVIC_SetPriority+0x70>)
 8000ab4:	b2c9      	uxtb	r1, r1
 8000ab6:	4403      	add	r3, r0
 8000ab8:	7619      	strb	r1, [r3, #24]
 8000aba:	bc30      	pop	{r4, r5}
 8000abc:	4770      	bx	lr
 8000abe:	bf00      	nop
 8000ac0:	e000ed00 	.word	0xe000ed00
 8000ac4:	e000e100 	.word	0xe000e100
 8000ac8:	e000ecfc 	.word	0xe000ecfc

08000acc <HAL_NVIC_EnableIRQ>:
 8000acc:	2800      	cmp	r0, #0
 8000ace:	db07      	blt.n	8000ae0 <HAL_NVIC_EnableIRQ+0x14>
 8000ad0:	2301      	movs	r3, #1
 8000ad2:	f000 011f 	and.w	r1, r0, #31
 8000ad6:	4a03      	ldr	r2, [pc, #12]	; (8000ae4 <HAL_NVIC_EnableIRQ+0x18>)
 8000ad8:	0940      	lsrs	r0, r0, #5
 8000ada:	408b      	lsls	r3, r1
 8000adc:	f842 3020 	str.w	r3, [r2, r0, lsl #2]
 8000ae0:	4770      	bx	lr
 8000ae2:	bf00      	nop
 8000ae4:	e000e100 	.word	0xe000e100

08000ae8 <HAL_SYSTICK_Config>:
 8000ae8:	3801      	subs	r0, #1
 8000aea:	f1b0 7f80 	cmp.w	r0, #16777216	; 0x1000000
 8000aee:	d20d      	bcs.n	8000b0c <HAL_SYSTICK_Config+0x24>
 8000af0:	4b07      	ldr	r3, [pc, #28]	; (8000b10 <HAL_SYSTICK_Config+0x28>)
 8000af2:	2200      	movs	r2, #0
 8000af4:	2107      	movs	r1, #7
 8000af6:	b430      	push	{r4, r5}
 8000af8:	25f0      	movs	r5, #240	; 0xf0
 8000afa:	4c06      	ldr	r4, [pc, #24]	; (8000b14 <HAL_SYSTICK_Config+0x2c>)
 8000afc:	6058      	str	r0, [r3, #4]
 8000afe:	4610      	mov	r0, r2
 8000b00:	f884 5023 	strb.w	r5, [r4, #35]	; 0x23
 8000b04:	609a      	str	r2, [r3, #8]
 8000b06:	6019      	str	r1, [r3, #0]
 8000b08:	bc30      	pop	{r4, r5}
 8000b0a:	4770      	bx	lr
 8000b0c:	2001      	movs	r0, #1
 8000b0e:	4770      	bx	lr
 8000b10:	e000e010 	.word	0xe000e010
 8000b14:	e000ed00 	.word	0xe000ed00

08000b18 <HAL_GPIO_Init>:
 8000b18:	e92d 4ff0 	stmdb	sp!, {r4, r5, r6, r7, r8, r9, sl, fp, lr}
 8000b1c:	680e      	ldr	r6, [r1, #0]
 8000b1e:	b085      	sub	sp, #20
 8000b20:	2e00      	cmp	r6, #0
 8000b22:	f000 80d3 	beq.w	8000ccc <HAL_GPIO_Init+0x1b4>
 8000b26:	2300      	movs	r3, #0
 8000b28:	f8df a220 	ldr.w	sl, [pc, #544]	; 8000d4c <HAL_GPIO_Init+0x234>
 8000b2c:	f8df b220 	ldr.w	fp, [pc, #544]	; 8000d50 <HAL_GPIO_Init+0x238>
 8000b30:	46b1      	mov	r9, r6
 8000b32:	e020      	b.n	8000b76 <HAL_GPIO_Init+0x5e>
 8000b34:	08da      	lsrs	r2, r3, #3
 8000b36:	f003 0c07 	and.w	ip, r3, #7
 8000b3a:	f004 0403 	and.w	r4, r4, #3
 8000b3e:	f04f 0e0f 	mov.w	lr, #15
 8000b42:	eb00 0282 	add.w	r2, r0, r2, lsl #2
 8000b46:	690e      	ldr	r6, [r1, #16]
 8000b48:	ea4f 0c8c 	mov.w	ip, ip, lsl #2
 8000b4c:	fa04 f707 	lsl.w	r7, r4, r7
 8000b50:	6a14      	ldr	r4, [r2, #32]
 8000b52:	fa0e fe0c 	lsl.w	lr, lr, ip
 8000b56:	fa06 f60c 	lsl.w	r6, r6, ip
 8000b5a:	ea24 0c0e 	bic.w	ip, r4, lr
 8000b5e:	ea46 060c 	orr.w	r6, r6, ip
 8000b62:	6216      	str	r6, [r2, #32]
 8000b64:	6802      	ldr	r2, [r0, #0]
 8000b66:	4015      	ands	r5, r2
 8000b68:	433d      	orrs	r5, r7
 8000b6a:	6005      	str	r5, [r0, #0]
 8000b6c:	3301      	adds	r3, #1
 8000b6e:	fa39 f203 	lsrs.w	r2, r9, r3
 8000b72:	f000 80ab 	beq.w	8000ccc <HAL_GPIO_Init+0x1b4>
 8000b76:	2201      	movs	r2, #1
 8000b78:	409a      	lsls	r2, r3
 8000b7a:	ea12 0809 	ands.w	r8, r2, r9
 8000b7e:	d0f5      	beq.n	8000b6c <HAL_GPIO_Init+0x54>
 8000b80:	684c      	ldr	r4, [r1, #4]
 8000b82:	005f      	lsls	r7, r3, #1
 8000b84:	f024 0c10 	bic.w	ip, r4, #16
 8000b88:	f10c 35ff 	add.w	r5, ip, #4294967295
 8000b8c:	2d01      	cmp	r5, #1
 8000b8e:	f04f 0503 	mov.w	r5, #3
 8000b92:	f200 809e 	bhi.w	8000cd2 <HAL_GPIO_Init+0x1ba>
 8000b96:	f3c4 1600 	ubfx	r6, r4, #4, #1
 8000b9a:	f8d0 e008 	ldr.w	lr, [r0, #8]
 8000b9e:	40bd      	lsls	r5, r7
 8000ba0:	409e      	lsls	r6, r3
 8000ba2:	ea2e 0e05 	bic.w	lr, lr, r5
 8000ba6:	43ed      	mvns	r5, r5
 8000ba8:	9601      	str	r6, [sp, #4]
 8000baa:	68ce      	ldr	r6, [r1, #12]
 8000bac:	40be      	lsls	r6, r7
 8000bae:	ea46 0e0e 	orr.w	lr, r6, lr
 8000bb2:	9e01      	ldr	r6, [sp, #4]
 8000bb4:	f8c0 e008 	str.w	lr, [r0, #8]
 8000bb8:	f8d0 e004 	ldr.w	lr, [r0, #4]
 8000bbc:	ea2e 0202 	bic.w	r2, lr, r2
 8000bc0:	4316      	orrs	r6, r2
 8000bc2:	6046      	str	r6, [r0, #4]
 8000bc4:	68c6      	ldr	r6, [r0, #12]
 8000bc6:	f1bc 0f02 	cmp.w	ip, #2
 8000bca:	688a      	ldr	r2, [r1, #8]
 8000bcc:	ea06 0605 	and.w	r6, r6, r5
 8000bd0:	fa02 f207 	lsl.w	r2, r2, r7
 8000bd4:	ea42 0206 	orr.w	r2, r2, r6
 8000bd8:	60c2      	str	r2, [r0, #12]
 8000bda:	d0ab      	beq.n	8000b34 <HAL_GPIO_Init+0x1c>
 8000bdc:	6806      	ldr	r6, [r0, #0]
 8000bde:	f004 0203 	and.w	r2, r4, #3
 8000be2:	402e      	ands	r6, r5
 8000be4:	fa02 f707 	lsl.w	r7, r2, r7
 8000be8:	433e      	orrs	r6, r7
 8000bea:	6006      	str	r6, [r0, #0]
 8000bec:	00e6      	lsls	r6, r4, #3
 8000bee:	d5bd      	bpl.n	8000b6c <HAL_GPIO_Init+0x54>
 8000bf0:	f8da 60f4 	ldr.w	r6, [sl, #244]	; 0xf4
 8000bf4:	f023 0703 	bic.w	r7, r3, #3
 8000bf8:	f003 0203 	and.w	r2, r3, #3
 8000bfc:	250f      	movs	r5, #15
 8000bfe:	f046 0602 	orr.w	r6, r6, #2
 8000c02:	f107 47b0 	add.w	r7, r7, #1476395008	; 0x58000000
 8000c06:	0092      	lsls	r2, r2, #2
 8000c08:	f8ca 60f4 	str.w	r6, [sl, #244]	; 0xf4
 8000c0c:	f507 6780 	add.w	r7, r7, #1024	; 0x400
 8000c10:	f8da 60f4 	ldr.w	r6, [sl, #244]	; 0xf4
 8000c14:	fa05 fc02 	lsl.w	ip, r5, r2
 8000c18:	f006 0602 	and.w	r6, r6, #2
 8000c1c:	9603      	str	r6, [sp, #12]
 8000c1e:	4e42      	ldr	r6, [pc, #264]	; (8000d28 <HAL_GPIO_Init+0x210>)
 8000c20:	9d03      	ldr	r5, [sp, #12]
 8000c22:	42b0      	cmp	r0, r6
 8000c24:	68bd      	ldr	r5, [r7, #8]
 8000c26:	ea25 050c 	bic.w	r5, r5, ip
 8000c2a:	d020      	beq.n	8000c6e <HAL_GPIO_Init+0x156>
 8000c2c:	f506 6680 	add.w	r6, r6, #1024	; 0x400
 8000c30:	42b0      	cmp	r0, r6
 8000c32:	d056      	beq.n	8000ce2 <HAL_GPIO_Init+0x1ca>
 8000c34:	4e3d      	ldr	r6, [pc, #244]	; (8000d2c <HAL_GPIO_Init+0x214>)
 8000c36:	42b0      	cmp	r0, r6
 8000c38:	d058      	beq.n	8000cec <HAL_GPIO_Init+0x1d4>
 8000c3a:	4e3d      	ldr	r6, [pc, #244]	; (8000d30 <HAL_GPIO_Init+0x218>)
 8000c3c:	42b0      	cmp	r0, r6
 8000c3e:	d04b      	beq.n	8000cd8 <HAL_GPIO_Init+0x1c0>
 8000c40:	4e3c      	ldr	r6, [pc, #240]	; (8000d34 <HAL_GPIO_Init+0x21c>)
 8000c42:	42b0      	cmp	r0, r6
 8000c44:	d05c      	beq.n	8000d00 <HAL_GPIO_Init+0x1e8>
 8000c46:	4e3c      	ldr	r6, [pc, #240]	; (8000d38 <HAL_GPIO_Init+0x220>)
 8000c48:	42b0      	cmp	r0, r6
 8000c4a:	d05e      	beq.n	8000d0a <HAL_GPIO_Init+0x1f2>
 8000c4c:	4e3b      	ldr	r6, [pc, #236]	; (8000d3c <HAL_GPIO_Init+0x224>)
 8000c4e:	42b0      	cmp	r0, r6
 8000c50:	d051      	beq.n	8000cf6 <HAL_GPIO_Init+0x1de>
 8000c52:	4e3b      	ldr	r6, [pc, #236]	; (8000d40 <HAL_GPIO_Init+0x228>)
 8000c54:	42b0      	cmp	r0, r6
 8000c56:	d05d      	beq.n	8000d14 <HAL_GPIO_Init+0x1fc>
 8000c58:	4e3a      	ldr	r6, [pc, #232]	; (8000d44 <HAL_GPIO_Init+0x22c>)
 8000c5a:	42b0      	cmp	r0, r6
 8000c5c:	d05f      	beq.n	8000d1e <HAL_GPIO_Init+0x206>
 8000c5e:	4e3a      	ldr	r6, [pc, #232]	; (8000d48 <HAL_GPIO_Init+0x230>)
 8000c60:	42b0      	cmp	r0, r6
 8000c62:	bf0c      	ite	eq
 8000c64:	2609      	moveq	r6, #9
 8000c66:	260a      	movne	r6, #10
 8000c68:	fa06 f202 	lsl.w	r2, r6, r2
 8000c6c:	4315      	orrs	r5, r2
 8000c6e:	60bd      	str	r5, [r7, #8]
 8000c70:	ea6f 0608 	mvn.w	r6, r8
 8000c74:	f8db 2000 	ldr.w	r2, [fp]
 8000c78:	03e5      	lsls	r5, r4, #15
 8000c7a:	f103 0301 	add.w	r3, r3, #1
 8000c7e:	bf54      	ite	pl
 8000c80:	4032      	andpl	r2, r6
 8000c82:	ea48 0202 	orrmi.w	r2, r8, r2
 8000c86:	f8cb 2000 	str.w	r2, [fp]
 8000c8a:	03a2      	lsls	r2, r4, #14
 8000c8c:	f8db 5004 	ldr.w	r5, [fp, #4]
 8000c90:	f04f 42b0 	mov.w	r2, #1476395008	; 0x58000000
 8000c94:	bf54      	ite	pl
 8000c96:	4035      	andpl	r5, r6
 8000c98:	ea48 0505 	orrmi.w	r5, r8, r5
 8000c9c:	02e7      	lsls	r7, r4, #11
 8000c9e:	f8cb 5004 	str.w	r5, [fp, #4]
 8000ca2:	6815      	ldr	r5, [r2, #0]
 8000ca4:	f04f 42b0 	mov.w	r2, #1476395008	; 0x58000000
 8000ca8:	bf54      	ite	pl
 8000caa:	4035      	andpl	r5, r6
 8000cac:	ea48 0505 	orrmi.w	r5, r8, r5
 8000cb0:	02a4      	lsls	r4, r4, #10
 8000cb2:	f04f 44b0 	mov.w	r4, #1476395008	; 0x58000000
 8000cb6:	6015      	str	r5, [r2, #0]
 8000cb8:	6852      	ldr	r2, [r2, #4]
 8000cba:	bf54      	ite	pl
 8000cbc:	4032      	andpl	r2, r6
 8000cbe:	ea48 0202 	orrmi.w	r2, r8, r2
 8000cc2:	6062      	str	r2, [r4, #4]
 8000cc4:	fa39 f203 	lsrs.w	r2, r9, r3
 8000cc8:	f47f af55 	bne.w	8000b76 <HAL_GPIO_Init+0x5e>
 8000ccc:	b005      	add	sp, #20
 8000cce:	e8bd 8ff0 	ldmia.w	sp!, {r4, r5, r6, r7, r8, r9, sl, fp, pc}
 8000cd2:	40bd      	lsls	r5, r7
 8000cd4:	43ed      	mvns	r5, r5
 8000cd6:	e775      	b.n	8000bc4 <HAL_GPIO_Init+0xac>
 8000cd8:	2603      	movs	r6, #3
 8000cda:	fa06 f202 	lsl.w	r2, r6, r2
 8000cde:	4315      	orrs	r5, r2
 8000ce0:	e7c5      	b.n	8000c6e <HAL_GPIO_Init+0x156>
 8000ce2:	2601      	movs	r6, #1
 8000ce4:	fa06 f202 	lsl.w	r2, r6, r2
 8000ce8:	4315      	orrs	r5, r2
 8000cea:	e7c0      	b.n	8000c6e <HAL_GPIO_Init+0x156>
 8000cec:	2602      	movs	r6, #2
 8000cee:	fa06 f202 	lsl.w	r2, r6, r2
 8000cf2:	4315      	orrs	r5, r2
 8000cf4:	e7bb      	b.n	8000c6e <HAL_GPIO_Init+0x156>
 8000cf6:	2606      	movs	r6, #6
 8000cf8:	fa06 f202 	lsl.w	r2, r6, r2
 8000cfc:	4315      	orrs	r5, r2
 8000cfe:	e7b6      	b.n	8000c6e <HAL_GPIO_Init+0x156>
 8000d00:	2604      	movs	r6, #4
 8000d02:	fa06 f202 	lsl.w	r2, r6, r2
 8000d06:	4315      	orrs	r5, r2
 8000d08:	e7b1      	b.n	8000c6e <HAL_GPIO_Init+0x156>
 8000d0a:	2605      	movs	r6, #5
 8000d0c:	fa06 f202 	lsl.w	r2, r6, r2
 8000d10:	4315      	orrs	r5, r2
 8000d12:	e7ac      	b.n	8000c6e <HAL_GPIO_Init+0x156>
 8000d14:	2607      	movs	r6, #7
 8000d16:	fa06 f202 	lsl.w	r2, r6, r2
 8000d1a:	4315      	orrs	r5, r2
 8000d1c:	e7a7      	b.n	8000c6e <HAL_GPIO_Init+0x156>
 8000d1e:	2608      	movs	r6, #8
 8000d20:	fa06 f202 	lsl.w	r2, r6, r2
 8000d24:	4315      	orrs	r5, r2
 8000d26:	e7a2      	b.n	8000c6e <HAL_GPIO_Init+0x156>
 8000d28:	58020000 	.word	0x58020000
 8000d2c:	58020800 	.word	0x58020800
 8000d30:	58020c00 	.word	0x58020c00
 8000d34:	58021000 	.word	0x58021000
 8000d38:	58021400 	.word	0x58021400
 8000d3c:	58021800 	.word	0x58021800
 8000d40:	58021c00 	.word	0x58021c00
 8000d44:	58022000 	.word	0x58022000
 8000d48:	58022400 	.word	0x58022400
 8000d4c:	58024400 	.word	0x58024400
 8000d50:	58000080 	.word	0x58000080

08000d54 <HAL_GPIO_WritePin>:
 8000d54:	b902      	cbnz	r2, 8000d58 <HAL_GPIO_WritePin+0x4>
 8000d56:	0409      	lsls	r1, r1, #16
 8000d58:	6181      	str	r1, [r0, #24]
 8000d5a:	4770      	bx	lr

08000d5c <HAL_I2S_Init>:
 8000d5c:	2800      	cmp	r0, #0
 8000d5e:	f000 80ab 	beq.w	8000eb8 <HAL_I2S_Init+0x15c>
 8000d62:	b5f8      	push	{r3, r4, r5, r6, r7, lr}
 8000d64:	f890 304d 	ldrb.w	r3, [r0, #77]	; 0x4d
 8000d68:	4604      	mov	r4, r0
 8000d6a:	f003 02ff 	and.w	r2, r3, #255	; 0xff
 8000d6e:	2b00      	cmp	r3, #0
 8000d70:	d056      	beq.n	8000e20 <HAL_I2S_Init+0xc4>
 8000d72:	2302      	movs	r3, #2
 8000d74:	6822      	ldr	r2, [r4, #0]
 8000d76:	f884 304d 	strb.w	r3, [r4, #77]	; 0x4d
 8000d7a:	6813      	ldr	r3, [r2, #0]
 8000d7c:	07db      	lsls	r3, r3, #31
 8000d7e:	d44a      	bmi.n	8000e16 <HAL_I2S_Init+0xba>
 8000d80:	f8d4 c004 	ldr.w	ip, [r4, #4]
 8000d84:	2300      	movs	r3, #0
 8000d86:	f02c 0102 	bic.w	r1, ip, #2
 8000d8a:	6513      	str	r3, [r2, #80]	; 0x50
 8000d8c:	f1bc 0f0a 	cmp.w	ip, #10
 8000d90:	bf18      	it	ne
 8000d92:	2904      	cmpne	r1, #4
 8000d94:	bf0c      	ite	eq
 8000d96:	2101      	moveq	r1, #1
 8000d98:	2100      	movne	r1, #0
 8000d9a:	d146      	bne.n	8000e2a <HAL_I2S_Init+0xce>
 8000d9c:	6963      	ldr	r3, [r4, #20]
 8000d9e:	2b02      	cmp	r3, #2
 8000da0:	d071      	beq.n	8000e86 <HAL_I2S_Init+0x12a>
 8000da2:	68e2      	ldr	r2, [r4, #12]
 8000da4:	f44f 5080 	mov.w	r0, #4096	; 0x1000
 8000da8:	68a3      	ldr	r3, [r4, #8]
 8000daa:	2a00      	cmp	r2, #0
 8000dac:	f023 0380 	bic.w	r3, r3, #128	; 0x80
 8000db0:	bf14      	ite	ne
 8000db2:	2602      	movne	r6, #2
 8000db4:	2601      	moveq	r6, #1
 8000db6:	f1a3 0530 	sub.w	r5, r3, #48	; 0x30
 8000dba:	f001 ffdd 	bl	8002d78 <HAL_RCCEx_GetPeriphCLKFreq>
 8000dbe:	6927      	ldr	r7, [r4, #16]
 8000dc0:	fab5 f585 	clz	r5, r5
 8000dc4:	f1b7 7f00 	cmp.w	r7, #33554432	; 0x2000000
 8000dc8:	ea4f 1555 	mov.w	r5, r5, lsr #5
 8000dcc:	d076      	beq.n	8000ebc <HAL_I2S_Init+0x160>
 8000dce:	2320      	movs	r3, #32
 8000dd0:	6962      	ldr	r2, [r4, #20]
 8000dd2:	fa23 f505 	lsr.w	r5, r3, r5
 8000dd6:	fb06 f605 	mul.w	r6, r6, r5
 8000dda:	fbb0 f0f6 	udiv	r0, r0, r6
 8000dde:	eb00 0080 	add.w	r0, r0, r0, lsl #2
 8000de2:	0043      	lsls	r3, r0, #1
 8000de4:	fbb3 f3f2 	udiv	r3, r3, r2
 8000de8:	3305      	adds	r3, #5
 8000dea:	4a42      	ldr	r2, [pc, #264]	; (8000ef4 <HAL_I2S_Init+0x198>)
 8000dec:	fba2 2303 	umull	r2, r3, r2, r3
 8000df0:	0918      	lsrs	r0, r3, #4
 8000df2:	f3c3 02c0 	ubfx	r2, r3, #3, #1
 8000df6:	f1a0 0101 	sub.w	r1, r0, #1
 8000dfa:	fab1 f181 	clz	r1, r1
 8000dfe:	0949      	lsrs	r1, r1, #5
 8000e00:	ea11 03d3 	ands.w	r3, r1, r3, lsr #3
 8000e04:	d101      	bne.n	8000e0a <HAL_I2S_Init+0xae>
 8000e06:	28ff      	cmp	r0, #255	; 0xff
 8000e08:	d946      	bls.n	8000e98 <HAL_I2S_Init+0x13c>
 8000e0a:	6d23      	ldr	r3, [r4, #80]	; 0x50
 8000e0c:	2001      	movs	r0, #1
 8000e0e:	f043 0310 	orr.w	r3, r3, #16
 8000e12:	6523      	str	r3, [r4, #80]	; 0x50
 8000e14:	bdf8      	pop	{r3, r4, r5, r6, r7, pc}
 8000e16:	6813      	ldr	r3, [r2, #0]
 8000e18:	f023 0301 	bic.w	r3, r3, #1
 8000e1c:	6013      	str	r3, [r2, #0]
 8000e1e:	e7af      	b.n	8000d80 <HAL_I2S_Init+0x24>
 8000e20:	f880 204c 	strb.w	r2, [r0, #76]	; 0x4c
 8000e24:	f7ff fc12 	bl	800064c <HAL_I2S_MspInit>
 8000e28:	e7a3      	b.n	8000d72 <HAL_I2S_Init+0x16>
 8000e2a:	6927      	ldr	r7, [r4, #16]
 8000e2c:	6d15      	ldr	r5, [r2, #80]	; 0x50
 8000e2e:	f640 70f8 	movw	r0, #4088	; 0xff8
 8000e32:	4e31      	ldr	r6, [pc, #196]	; (8000ef8 <HAL_I2S_Init+0x19c>)
 8000e34:	68a3      	ldr	r3, [r4, #8]
 8000e36:	402e      	ands	r6, r5
 8000e38:	68e5      	ldr	r5, [r4, #12]
 8000e3a:	432b      	orrs	r3, r5
 8000e3c:	69a5      	ldr	r5, [r4, #24]
 8000e3e:	4333      	orrs	r3, r6
 8000e40:	6a26      	ldr	r6, [r4, #32]
 8000e42:	432b      	orrs	r3, r5
 8000e44:	6a65      	ldr	r5, [r4, #36]	; 0x24
 8000e46:	4333      	orrs	r3, r6
 8000e48:	69e6      	ldr	r6, [r4, #28]
 8000e4a:	432b      	orrs	r3, r5
 8000e4c:	ea43 030c 	orr.w	r3, r3, ip
 8000e50:	433b      	orrs	r3, r7
 8000e52:	f043 0301 	orr.w	r3, r3, #1
 8000e56:	6513      	str	r3, [r2, #80]	; 0x50
 8000e58:	6190      	str	r0, [r2, #24]
 8000e5a:	6813      	ldr	r3, [r2, #0]
 8000e5c:	f423 3380 	bic.w	r3, r3, #65536	; 0x10000
 8000e60:	6013      	str	r3, [r2, #0]
 8000e62:	68d3      	ldr	r3, [r2, #12]
 8000e64:	f423 0300 	bic.w	r3, r3, #8388608	; 0x800000
 8000e68:	4333      	orrs	r3, r6
 8000e6a:	60d3      	str	r3, [r2, #12]
 8000e6c:	b129      	cbz	r1, 8000e7a <HAL_I2S_Init+0x11e>
 8000e6e:	68d3      	ldr	r3, [r2, #12]
 8000e70:	6aa1      	ldr	r1, [r4, #40]	; 0x28
 8000e72:	f023 4300 	bic.w	r3, r3, #2147483648	; 0x80000000
 8000e76:	430b      	orrs	r3, r1
 8000e78:	60d3      	str	r3, [r2, #12]
 8000e7a:	2000      	movs	r0, #0
 8000e7c:	2301      	movs	r3, #1
 8000e7e:	6520      	str	r0, [r4, #80]	; 0x50
 8000e80:	f884 304d 	strb.w	r3, [r4, #77]	; 0x4d
 8000e84:	bdf8      	pop	{r3, r4, r5, r6, r7, pc}
 8000e86:	6927      	ldr	r7, [r4, #16]
 8000e88:	f44f 3000 	mov.w	r0, #131072	; 0x20000
 8000e8c:	6d15      	ldr	r5, [r2, #80]	; 0x50
 8000e8e:	4b1b      	ldr	r3, [pc, #108]	; (8000efc <HAL_I2S_Init+0x1a0>)
 8000e90:	402b      	ands	r3, r5
 8000e92:	4303      	orrs	r3, r0
 8000e94:	6513      	str	r3, [r2, #80]	; 0x50
 8000e96:	e7c9      	b.n	8000e2c <HAL_I2S_Init+0xd0>
 8000e98:	f8d4 c004 	ldr.w	ip, [r4, #4]
 8000e9c:	b9e0      	cbnz	r0, 8000ed8 <HAL_I2S_Init+0x17c>
 8000e9e:	f02c 0102 	bic.w	r1, ip, #2
 8000ea2:	f04f 7080 	mov.w	r0, #16777216	; 0x1000000
 8000ea6:	6822      	ldr	r2, [r4, #0]
 8000ea8:	f1bc 0f0a 	cmp.w	ip, #10
 8000eac:	bf18      	it	ne
 8000eae:	2904      	cmpne	r1, #4
 8000eb0:	bf0c      	ite	eq
 8000eb2:	2101      	moveq	r1, #1
 8000eb4:	2100      	movne	r1, #0
 8000eb6:	e7e9      	b.n	8000e8c <HAL_I2S_Init+0x130>
 8000eb8:	2001      	movs	r0, #1
 8000eba:	4770      	bx	lr
 8000ebc:	f44f 7380 	mov.w	r3, #256	; 0x100
 8000ec0:	6962      	ldr	r2, [r4, #20]
 8000ec2:	fa23 f505 	lsr.w	r5, r3, r5
 8000ec6:	fbb0 f0f5 	udiv	r0, r0, r5
 8000eca:	eb00 0080 	add.w	r0, r0, r0, lsl #2
 8000ece:	0043      	lsls	r3, r0, #1
 8000ed0:	fbb3 f3f2 	udiv	r3, r3, r2
 8000ed4:	3305      	adds	r3, #5
 8000ed6:	e788      	b.n	8000dea <HAL_I2S_Init+0x8e>
 8000ed8:	f02c 0102 	bic.w	r1, ip, #2
 8000edc:	0613      	lsls	r3, r2, #24
 8000ede:	6822      	ldr	r2, [r4, #0]
 8000ee0:	f1bc 0f0a 	cmp.w	ip, #10
 8000ee4:	bf18      	it	ne
 8000ee6:	2904      	cmpne	r1, #4
 8000ee8:	ea43 4000 	orr.w	r0, r3, r0, lsl #16
 8000eec:	bf0c      	ite	eq
 8000eee:	2101      	moveq	r1, #1
 8000ef0:	2100      	movne	r1, #0
 8000ef2:	e7cb      	b.n	8000e8c <HAL_I2S_Init+0x130>
 8000ef4:	cccccccd 	.word	0xcccccccd
 8000ef8:	fdff9040 	.word	0xfdff9040
 8000efc:	fe00ffff 	.word	0xfe00ffff

08000f00 <HAL_I2S_Transmit>:
 8000f00:	e92d 43f8 	stmdb	sp!, {r3, r4, r5, r6, r7, r8, r9, lr}
 8000f04:	2900      	cmp	r1, #0
 8000f06:	f000 809a 	beq.w	800103e <HAL_I2S_Transmit+0x13e>
 8000f0a:	461e      	mov	r6, r3
 8000f0c:	fab2 f382 	clz	r3, r2
 8000f10:	095b      	lsrs	r3, r3, #5
 8000f12:	2a00      	cmp	r2, #0
 8000f14:	f000 8093 	beq.w	800103e <HAL_I2S_Transmit+0x13e>
 8000f18:	4604      	mov	r4, r0
 8000f1a:	f890 004c 	ldrb.w	r0, [r0, #76]	; 0x4c
 8000f1e:	2801      	cmp	r0, #1
 8000f20:	f000 8097 	beq.w	8001052 <HAL_I2S_Transmit+0x152>
 8000f24:	2001      	movs	r0, #1
 8000f26:	6827      	ldr	r7, [r4, #0]
 8000f28:	f884 004c 	strb.w	r0, [r4, #76]	; 0x4c
 8000f2c:	f894 004d 	ldrb.w	r0, [r4, #77]	; 0x4d
 8000f30:	2801      	cmp	r0, #1
 8000f32:	fa5f f880 	uxtb.w	r8, r0
 8000f36:	d14d      	bne.n	8000fd4 <HAL_I2S_Transmit+0xd4>
 8000f38:	2003      	movs	r0, #3
 8000f3a:	6363      	str	r3, [r4, #52]	; 0x34
 8000f3c:	62e1      	str	r1, [r4, #44]	; 0x2c
 8000f3e:	f884 004d 	strb.w	r0, [r4, #77]	; 0x4d
 8000f42:	6523      	str	r3, [r4, #80]	; 0x50
 8000f44:	8622      	strh	r2, [r4, #48]	; 0x30
 8000f46:	8662      	strh	r2, [r4, #50]	; 0x32
 8000f48:	8723      	strh	r3, [r4, #56]	; 0x38
 8000f4a:	8763      	strh	r3, [r4, #58]	; 0x3a
 8000f4c:	683b      	ldr	r3, [r7, #0]
 8000f4e:	07da      	lsls	r2, r3, #31
 8000f50:	d57a      	bpl.n	8001048 <HAL_I2S_Transmit+0x148>
 8000f52:	683b      	ldr	r3, [r7, #0]
 8000f54:	f443 7300 	orr.w	r3, r3, #512	; 0x200
 8000f58:	603b      	str	r3, [r7, #0]
 8000f5a:	f7ff fd4b 	bl	80009f4 <HAL_GetTick>
 8000f5e:	4681      	mov	r9, r0
 8000f60:	1c73      	adds	r3, r6, #1
 8000f62:	6822      	ldr	r2, [r4, #0]
 8000f64:	d160      	bne.n	8001028 <HAL_I2S_Transmit+0x128>
 8000f66:	6953      	ldr	r3, [r2, #20]
 8000f68:	079d      	lsls	r5, r3, #30
 8000f6a:	d5fc      	bpl.n	8000f66 <HAL_I2S_Transmit+0x66>
 8000f6c:	8e61      	ldrh	r1, [r4, #50]	; 0x32
 8000f6e:	b289      	uxth	r1, r1
 8000f70:	b339      	cbz	r1, 8000fc2 <HAL_I2S_Transmit+0xc2>
 8000f72:	68e3      	ldr	r3, [r4, #12]
 8000f74:	f5b3 7f80 	cmp.w	r3, #256	; 0x100
 8000f78:	d04c      	beq.n	8001014 <HAL_I2S_Transmit+0x114>
 8000f7a:	f5b3 7f00 	cmp.w	r3, #512	; 0x200
 8000f7e:	d049      	beq.n	8001014 <HAL_I2S_Transmit+0x114>
 8000f80:	6ae2      	ldr	r2, [r4, #44]	; 0x2c
 8000f82:	f832 3b02 	ldrh.w	r3, [r2], #2
 8000f86:	843b      	strh	r3, [r7, #32]
 8000f88:	8e63      	ldrh	r3, [r4, #50]	; 0x32
 8000f8a:	62e2      	str	r2, [r4, #44]	; 0x2c
 8000f8c:	3b01      	subs	r3, #1
 8000f8e:	b29b      	uxth	r3, r3
 8000f90:	8663      	strh	r3, [r4, #50]	; 0x32
 8000f92:	f7ff fd2f 	bl	80009f4 <HAL_GetTick>
 8000f96:	4681      	mov	r9, r0
 8000f98:	1c70      	adds	r0, r6, #1
 8000f9a:	6822      	ldr	r2, [r4, #0]
 8000f9c:	d121      	bne.n	8000fe2 <HAL_I2S_Transmit+0xe2>
 8000f9e:	6953      	ldr	r3, [r2, #20]
 8000fa0:	0799      	lsls	r1, r3, #30
 8000fa2:	d5fc      	bpl.n	8000f9e <HAL_I2S_Transmit+0x9e>
 8000fa4:	6953      	ldr	r3, [r2, #20]
 8000fa6:	069b      	lsls	r3, r3, #26
 8000fa8:	d5e0      	bpl.n	8000f6c <HAL_I2S_Transmit+0x6c>
 8000faa:	6993      	ldr	r3, [r2, #24]
 8000fac:	f043 0320 	orr.w	r3, r3, #32
 8000fb0:	6193      	str	r3, [r2, #24]
 8000fb2:	6d23      	ldr	r3, [r4, #80]	; 0x50
 8000fb4:	f043 0304 	orr.w	r3, r3, #4
 8000fb8:	6523      	str	r3, [r4, #80]	; 0x50
 8000fba:	8e61      	ldrh	r1, [r4, #50]	; 0x32
 8000fbc:	b289      	uxth	r1, r1
 8000fbe:	2900      	cmp	r1, #0
 8000fc0:	d1d7      	bne.n	8000f72 <HAL_I2S_Transmit+0x72>
 8000fc2:	2301      	movs	r3, #1
 8000fc4:	4688      	mov	r8, r1
 8000fc6:	f884 304d 	strb.w	r3, [r4, #77]	; 0x4d
 8000fca:	4640      	mov	r0, r8
 8000fcc:	f884 104c 	strb.w	r1, [r4, #76]	; 0x4c
 8000fd0:	e8bd 83f8 	ldmia.w	sp!, {r3, r4, r5, r6, r7, r8, r9, pc}
 8000fd4:	f04f 0802 	mov.w	r8, #2
 8000fd8:	f884 304c 	strb.w	r3, [r4, #76]	; 0x4c
 8000fdc:	4640      	mov	r0, r8
 8000fde:	e8bd 83f8 	ldmia.w	sp!, {r3, r4, r5, r6, r7, r8, r9, pc}
 8000fe2:	6955      	ldr	r5, [r2, #20]
 8000fe4:	f015 0502 	ands.w	r5, r5, #2
 8000fe8:	d1dc      	bne.n	8000fa4 <HAL_I2S_Transmit+0xa4>
 8000fea:	f7ff fd03 	bl	80009f4 <HAL_GetTick>
 8000fee:	eba0 0009 	sub.w	r0, r0, r9
 8000ff2:	4286      	cmp	r6, r0
 8000ff4:	d8d0      	bhi.n	8000f98 <HAL_I2S_Transmit+0x98>
 8000ff6:	2201      	movs	r2, #1
 8000ff8:	4640      	mov	r0, r8
 8000ffa:	f884 204d 	strb.w	r2, [r4, #77]	; 0x4d
 8000ffe:	f884 504c 	strb.w	r5, [r4, #76]	; 0x4c
 8001002:	6d23      	ldr	r3, [r4, #80]	; 0x50
 8001004:	4313      	orrs	r3, r2
 8001006:	6523      	str	r3, [r4, #80]	; 0x50
 8001008:	f884 204d 	strb.w	r2, [r4, #77]	; 0x4d
 800100c:	f884 504c 	strb.w	r5, [r4, #76]	; 0x4c
 8001010:	e8bd 83f8 	ldmia.w	sp!, {r3, r4, r5, r6, r7, r8, r9, pc}
 8001014:	6ae1      	ldr	r1, [r4, #44]	; 0x2c
 8001016:	f851 3b04 	ldr.w	r3, [r1], #4
 800101a:	6213      	str	r3, [r2, #32]
 800101c:	8e63      	ldrh	r3, [r4, #50]	; 0x32
 800101e:	62e1      	str	r1, [r4, #44]	; 0x2c
 8001020:	3b01      	subs	r3, #1
 8001022:	b29b      	uxth	r3, r3
 8001024:	8663      	strh	r3, [r4, #50]	; 0x32
 8001026:	e7b4      	b.n	8000f92 <HAL_I2S_Transmit+0x92>
 8001028:	6955      	ldr	r5, [r2, #20]
 800102a:	f015 0502 	ands.w	r5, r5, #2
 800102e:	d19d      	bne.n	8000f6c <HAL_I2S_Transmit+0x6c>
 8001030:	f7ff fce0 	bl	80009f4 <HAL_GetTick>
 8001034:	eba0 0009 	sub.w	r0, r0, r9
 8001038:	4286      	cmp	r6, r0
 800103a:	d891      	bhi.n	8000f60 <HAL_I2S_Transmit+0x60>
 800103c:	e7db      	b.n	8000ff6 <HAL_I2S_Transmit+0xf6>
 800103e:	f04f 0801 	mov.w	r8, #1
 8001042:	4640      	mov	r0, r8
 8001044:	e8bd 83f8 	ldmia.w	sp!, {r3, r4, r5, r6, r7, r8, r9, pc}
 8001048:	683b      	ldr	r3, [r7, #0]
 800104a:	f043 0301 	orr.w	r3, r3, #1
 800104e:	603b      	str	r3, [r7, #0]
 8001050:	e77f      	b.n	8000f52 <HAL_I2S_Transmit+0x52>
 8001052:	f04f 0802 	mov.w	r8, #2
 8001056:	e7c1      	b.n	8000fdc <HAL_I2S_Transmit+0xdc>

08001058 <HAL_I2S_ErrorCallback>:
 8001058:	4770      	bx	lr
 800105a:	bf00      	nop

0800105c <HAL_I2S_IRQHandler>:
 800105c:	6803      	ldr	r3, [r0, #0]
 800105e:	b570      	push	{r4, r5, r6, lr}
 8001060:	691d      	ldr	r5, [r3, #16]
 8001062:	4604      	mov	r4, r0
 8001064:	695a      	ldr	r2, [r3, #20]
 8001066:	f890 304d 	ldrb.w	r3, [r0, #77]	; 0x4d
 800106a:	4015      	ands	r5, r2
 800106c:	2b04      	cmp	r3, #4
 800106e:	d04d      	beq.n	800110c <HAL_I2S_IRQHandler+0xb0>
 8001070:	f894 304d 	ldrb.w	r3, [r4, #77]	; 0x4d
 8001074:	2b03      	cmp	r3, #3
 8001076:	d02c      	beq.n	80010d2 <HAL_I2S_IRQHandler+0x76>
 8001078:	f894 304d 	ldrb.w	r3, [r4, #77]	; 0x4d
 800107c:	2b05      	cmp	r3, #5
 800107e:	d000      	beq.n	8001082 <HAL_I2S_IRQHandler+0x26>
 8001080:	bd70      	pop	{r4, r5, r6, pc}
 8001082:	0769      	lsls	r1, r5, #29
 8001084:	d45e      	bmi.n	8001144 <HAL_I2S_IRQHandler+0xe8>
 8001086:	f005 0305 	and.w	r3, r5, #5
 800108a:	2b01      	cmp	r3, #1
 800108c:	d102      	bne.n	8001094 <HAL_I2S_IRQHandler+0x38>
 800108e:	6be3      	ldr	r3, [r4, #60]	; 0x3c
 8001090:	4620      	mov	r0, r4
 8001092:	4798      	blx	r3
 8001094:	f005 0306 	and.w	r3, r5, #6
 8001098:	2b02      	cmp	r3, #2
 800109a:	d102      	bne.n	80010a2 <HAL_I2S_IRQHandler+0x46>
 800109c:	6c23      	ldr	r3, [r4, #64]	; 0x40
 800109e:	4620      	mov	r0, r4
 80010a0:	4798      	blx	r3
 80010a2:	06aa      	lsls	r2, r5, #26
 80010a4:	d455      	bmi.n	8001152 <HAL_I2S_IRQHandler+0xf6>
 80010a6:	066b      	lsls	r3, r5, #25
 80010a8:	d5ea      	bpl.n	8001080 <HAL_I2S_IRQHandler+0x24>
 80010aa:	6823      	ldr	r3, [r4, #0]
 80010ac:	2101      	movs	r1, #1
 80010ae:	4a33      	ldr	r2, [pc, #204]	; (800117c <HAL_I2S_IRQHandler+0x120>)
 80010b0:	4620      	mov	r0, r4
 80010b2:	691d      	ldr	r5, [r3, #16]
 80010b4:	402a      	ands	r2, r5
 80010b6:	611a      	str	r2, [r3, #16]
 80010b8:	699a      	ldr	r2, [r3, #24]
 80010ba:	f042 0240 	orr.w	r2, r2, #64	; 0x40
 80010be:	619a      	str	r2, [r3, #24]
 80010c0:	f884 104d 	strb.w	r1, [r4, #77]	; 0x4d
 80010c4:	6d23      	ldr	r3, [r4, #80]	; 0x50
 80010c6:	f043 0302 	orr.w	r3, r3, #2
 80010ca:	6523      	str	r3, [r4, #80]	; 0x50
 80010cc:	f7ff ffc4 	bl	8001058 <HAL_I2S_ErrorCallback>
 80010d0:	bd70      	pop	{r4, r5, r6, pc}
 80010d2:	f005 0322 	and.w	r3, r5, #34	; 0x22
 80010d6:	2b02      	cmp	r3, #2
 80010d8:	d102      	bne.n	80010e0 <HAL_I2S_IRQHandler+0x84>
 80010da:	6c23      	ldr	r3, [r4, #64]	; 0x40
 80010dc:	4620      	mov	r0, r4
 80010de:	4798      	blx	r3
 80010e0:	06a8      	lsls	r0, r5, #26
 80010e2:	d5c9      	bpl.n	8001078 <HAL_I2S_IRQHandler+0x1c>
 80010e4:	6823      	ldr	r3, [r4, #0]
 80010e6:	2101      	movs	r1, #1
 80010e8:	4620      	mov	r0, r4
 80010ea:	691a      	ldr	r2, [r3, #16]
 80010ec:	f422 72b1 	bic.w	r2, r2, #354	; 0x162
 80010f0:	611a      	str	r2, [r3, #16]
 80010f2:	699a      	ldr	r2, [r3, #24]
 80010f4:	f042 0220 	orr.w	r2, r2, #32
 80010f8:	619a      	str	r2, [r3, #24]
 80010fa:	f884 104d 	strb.w	r1, [r4, #77]	; 0x4d
 80010fe:	6d23      	ldr	r3, [r4, #80]	; 0x50
 8001100:	f043 0304 	orr.w	r3, r3, #4
 8001104:	6523      	str	r3, [r4, #80]	; 0x50
 8001106:	f7ff ffa7 	bl	8001058 <HAL_I2S_ErrorCallback>
 800110a:	e7b5      	b.n	8001078 <HAL_I2S_IRQHandler+0x1c>
 800110c:	f005 0341 	and.w	r3, r5, #65	; 0x41
 8001110:	2b01      	cmp	r3, #1
 8001112:	d101      	bne.n	8001118 <HAL_I2S_IRQHandler+0xbc>
 8001114:	6bc3      	ldr	r3, [r0, #60]	; 0x3c
 8001116:	4798      	blx	r3
 8001118:	066e      	lsls	r6, r5, #25
 800111a:	d5a9      	bpl.n	8001070 <HAL_I2S_IRQHandler+0x14>
 800111c:	6823      	ldr	r3, [r4, #0]
 800111e:	2101      	movs	r1, #1
 8001120:	4a16      	ldr	r2, [pc, #88]	; (800117c <HAL_I2S_IRQHandler+0x120>)
 8001122:	4620      	mov	r0, r4
 8001124:	691e      	ldr	r6, [r3, #16]
 8001126:	4032      	ands	r2, r6
 8001128:	611a      	str	r2, [r3, #16]
 800112a:	699a      	ldr	r2, [r3, #24]
 800112c:	f042 0240 	orr.w	r2, r2, #64	; 0x40
 8001130:	619a      	str	r2, [r3, #24]
 8001132:	f884 104d 	strb.w	r1, [r4, #77]	; 0x4d
 8001136:	6d23      	ldr	r3, [r4, #80]	; 0x50
 8001138:	f043 0302 	orr.w	r3, r3, #2
 800113c:	6523      	str	r3, [r4, #80]	; 0x50
 800113e:	f7ff ff8b 	bl	8001058 <HAL_I2S_ErrorCallback>
 8001142:	e795      	b.n	8001070 <HAL_I2S_IRQHandler+0x14>
 8001144:	6c23      	ldr	r3, [r4, #64]	; 0x40
 8001146:	4620      	mov	r0, r4
 8001148:	4798      	blx	r3
 800114a:	6be3      	ldr	r3, [r4, #60]	; 0x3c
 800114c:	4620      	mov	r0, r4
 800114e:	4798      	blx	r3
 8001150:	e799      	b.n	8001086 <HAL_I2S_IRQHandler+0x2a>
 8001152:	6823      	ldr	r3, [r4, #0]
 8001154:	2101      	movs	r1, #1
 8001156:	4620      	mov	r0, r4
 8001158:	691a      	ldr	r2, [r3, #16]
 800115a:	f422 72b1 	bic.w	r2, r2, #354	; 0x162
 800115e:	611a      	str	r2, [r3, #16]
 8001160:	699a      	ldr	r2, [r3, #24]
 8001162:	f042 0220 	orr.w	r2, r2, #32
 8001166:	619a      	str	r2, [r3, #24]
 8001168:	f884 104d 	strb.w	r1, [r4, #77]	; 0x4d
 800116c:	6d23      	ldr	r3, [r4, #80]	; 0x50
 800116e:	f043 0304 	orr.w	r3, r3, #4
 8001172:	6523      	str	r3, [r4, #80]	; 0x50
 8001174:	f7ff ff70 	bl	8001058 <HAL_I2S_ErrorCallback>
 8001178:	e795      	b.n	80010a6 <HAL_I2S_IRQHandler+0x4a>
 800117a:	bf00      	nop
 800117c:	fffffe9e 	.word	0xfffffe9e

08001180 <HAL_PWREx_ConfigSupply>:
 8001180:	b538      	push	{r3, r4, r5, lr}
 8001182:	4b11      	ldr	r3, [pc, #68]	; (80011c8 <HAL_PWREx_ConfigSupply+0x48>)
 8001184:	68da      	ldr	r2, [r3, #12]
 8001186:	0752      	lsls	r2, r2, #29
 8001188:	d406      	bmi.n	8001198 <HAL_PWREx_ConfigSupply+0x18>
 800118a:	68db      	ldr	r3, [r3, #12]
 800118c:	f003 0307 	and.w	r3, r3, #7
 8001190:	1a18      	subs	r0, r3, r0
 8001192:	bf18      	it	ne
 8001194:	2001      	movne	r0, #1
 8001196:	bd38      	pop	{r3, r4, r5, pc}
 8001198:	68da      	ldr	r2, [r3, #12]
 800119a:	461d      	mov	r5, r3
 800119c:	f022 0207 	bic.w	r2, r2, #7
 80011a0:	4310      	orrs	r0, r2
 80011a2:	60d8      	str	r0, [r3, #12]
 80011a4:	f7ff fc26 	bl	80009f4 <HAL_GetTick>
 80011a8:	4604      	mov	r4, r0
 80011aa:	e005      	b.n	80011b8 <HAL_PWREx_ConfigSupply+0x38>
 80011ac:	f7ff fc22 	bl	80009f4 <HAL_GetTick>
 80011b0:	1b00      	subs	r0, r0, r4
 80011b2:	f5b0 7f7a 	cmp.w	r0, #1000	; 0x3e8
 80011b6:	d804      	bhi.n	80011c2 <HAL_PWREx_ConfigSupply+0x42>
 80011b8:	686b      	ldr	r3, [r5, #4]
 80011ba:	049b      	lsls	r3, r3, #18
 80011bc:	d5f6      	bpl.n	80011ac <HAL_PWREx_ConfigSupply+0x2c>
 80011be:	2000      	movs	r0, #0
 80011c0:	bd38      	pop	{r3, r4, r5, pc}
 80011c2:	2001      	movs	r0, #1
 80011c4:	bd38      	pop	{r3, r4, r5, pc}
 80011c6:	bf00      	nop
 80011c8:	58024800 	.word	0x58024800

080011cc <HAL_RCC_GetSysClockFreq.part.0>:
 80011cc:	4b3b      	ldr	r3, [pc, #236]	; (80012bc <HAL_RCC_GetSysClockFreq.part.0+0xf0>)
 80011ce:	b430      	push	{r4, r5}
 80011d0:	6a9a      	ldr	r2, [r3, #40]	; 0x28
 80011d2:	6a9c      	ldr	r4, [r3, #40]	; 0x28
 80011d4:	6ad9      	ldr	r1, [r3, #44]	; 0x2c
 80011d6:	f414 7f7c 	tst.w	r4, #1008	; 0x3f0
 80011da:	f3c4 1005 	ubfx	r0, r4, #4, #6
 80011de:	6b5d      	ldr	r5, [r3, #52]	; 0x34
 80011e0:	d038      	beq.n	8001254 <HAL_RCC_GetSysClockFreq.part.0+0x88>
 80011e2:	f3c5 05cc 	ubfx	r5, r5, #3, #13
 80011e6:	f001 0101 	and.w	r1, r1, #1
 80011ea:	f002 0203 	and.w	r2, r2, #3
 80011ee:	fb01 f105 	mul.w	r1, r1, r5
 80011f2:	2a01      	cmp	r2, #1
 80011f4:	ee07 1a90 	vmov	s15, r1
 80011f8:	eeb8 7ae7 	vcvt.f32.s32	s14, s15
 80011fc:	d002      	beq.n	8001204 <HAL_RCC_GetSysClockFreq.part.0+0x38>
 80011fe:	2a02      	cmp	r2, #2
 8001200:	d04e      	beq.n	80012a0 <HAL_RCC_GetSysClockFreq.part.0+0xd4>
 8001202:	b34a      	cbz	r2, 8001258 <HAL_RCC_GetSysClockFreq.part.0+0x8c>
 8001204:	ee07 0a90 	vmov	s15, r0
 8001208:	eddf 6a2d 	vldr	s13, [pc, #180]	; 80012c0 <HAL_RCC_GetSysClockFreq.part.0+0xf4>
 800120c:	eef8 7ae7 	vcvt.f32.s32	s15, s15
 8001210:	6b1b      	ldr	r3, [r3, #48]	; 0x30
 8001212:	ee86 6aa7 	vdiv.f32	s12, s13, s15
 8001216:	eddf 5a2b 	vldr	s11, [pc, #172]	; 80012c4 <HAL_RCC_GetSysClockFreq.part.0+0xf8>
 800121a:	f3c3 0308 	ubfx	r3, r3, #0, #9
 800121e:	ee06 3a90 	vmov	s13, r3
 8001222:	eeb7 5a00 	vmov.f32	s10, #112	; 0x3f800000  1.0
 8001226:	eef8 6ae6 	vcvt.f32.s32	s13, s13
 800122a:	ee76 6a85 	vadd.f32	s13, s13, s10
 800122e:	eee7 6a25 	vfma.f32	s13, s14, s11
 8001232:	ee66 6a26 	vmul.f32	s13, s12, s13
 8001236:	4b21      	ldr	r3, [pc, #132]	; (80012bc <HAL_RCC_GetSysClockFreq.part.0+0xf0>)
 8001238:	6b1b      	ldr	r3, [r3, #48]	; 0x30
 800123a:	f3c3 2346 	ubfx	r3, r3, #9, #7
 800123e:	3301      	adds	r3, #1
 8001240:	ee07 3a90 	vmov	s15, r3
 8001244:	eeb8 7ae7 	vcvt.f32.s32	s14, s15
 8001248:	eec6 7a87 	vdiv.f32	s15, s13, s14
 800124c:	eefc 7ae7 	vcvt.u32.f32	s15, s15
 8001250:	ee17 0a90 	vmov	r0, s15
 8001254:	bc30      	pop	{r4, r5}
 8001256:	4770      	bx	lr
 8001258:	681a      	ldr	r2, [r3, #0]
 800125a:	0692      	lsls	r2, r2, #26
 800125c:	d527      	bpl.n	80012ae <HAL_RCC_GetSysClockFreq.part.0+0xe2>
 800125e:	6819      	ldr	r1, [r3, #0]
 8001260:	ee07 0a90 	vmov	s15, r0
 8001264:	4a18      	ldr	r2, [pc, #96]	; (80012c8 <HAL_RCC_GetSysClockFreq.part.0+0xfc>)
 8001266:	eef7 4a00 	vmov.f32	s9, #112	; 0x3f800000  1.0
 800126a:	f3c1 01c1 	ubfx	r1, r1, #3, #2
 800126e:	eef8 7ae7 	vcvt.f32.s32	s15, s15
 8001272:	6b1b      	ldr	r3, [r3, #48]	; 0x30
 8001274:	40ca      	lsrs	r2, r1
 8001276:	ed9f 5a13 	vldr	s10, [pc, #76]	; 80012c4 <HAL_RCC_GetSysClockFreq.part.0+0xf8>
 800127a:	f3c3 0308 	ubfx	r3, r3, #0, #9
 800127e:	ee06 2a10 	vmov	s12, r2
 8001282:	ee06 3a90 	vmov	s13, r3
 8001286:	eef8 5ac6 	vcvt.f32.s32	s11, s12
 800128a:	eef8 6ae6 	vcvt.f32.s32	s13, s13
 800128e:	ee85 6aa7 	vdiv.f32	s12, s11, s15
 8001292:	ee76 6aa4 	vadd.f32	s13, s13, s9
 8001296:	eee7 6a05 	vfma.f32	s13, s14, s10
 800129a:	ee66 6a26 	vmul.f32	s13, s12, s13
 800129e:	e7ca      	b.n	8001236 <HAL_RCC_GetSysClockFreq.part.0+0x6a>
 80012a0:	ee07 0a90 	vmov	s15, r0
 80012a4:	eddf 6a09 	vldr	s13, [pc, #36]	; 80012cc <HAL_RCC_GetSysClockFreq.part.0+0x100>
 80012a8:	eef8 7ae7 	vcvt.f32.s32	s15, s15
 80012ac:	e7b0      	b.n	8001210 <HAL_RCC_GetSysClockFreq.part.0+0x44>
 80012ae:	ee07 0a90 	vmov	s15, r0
 80012b2:	eddf 6a07 	vldr	s13, [pc, #28]	; 80012d0 <HAL_RCC_GetSysClockFreq.part.0+0x104>
 80012b6:	eef8 7ae7 	vcvt.f32.s32	s15, s15
 80012ba:	e7a9      	b.n	8001210 <HAL_RCC_GetSysClockFreq.part.0+0x44>
 80012bc:	58024400 	.word	0x58024400
 80012c0:	4a742400 	.word	0x4a742400
 80012c4:	39000000 	.word	0x39000000
 80012c8:	03d09000 	.word	0x03d09000
 80012cc:	4bbebc20 	.word	0x4bbebc20
 80012d0:	4c742400 	.word	0x4c742400

080012d4 <HAL_RCC_OscConfig>:
 80012d4:	2800      	cmp	r0, #0
 80012d6:	f000 81f7 	beq.w	80016c8 <HAL_RCC_OscConfig+0x3f4>
 80012da:	b5f8      	push	{r3, r4, r5, r6, r7, lr}
 80012dc:	6803      	ldr	r3, [r0, #0]
 80012de:	4604      	mov	r4, r0
 80012e0:	07d9      	lsls	r1, r3, #31
 80012e2:	d52e      	bpl.n	8001342 <HAL_RCC_OscConfig+0x6e>
 80012e4:	49b4      	ldr	r1, [pc, #720]	; (80015b8 <HAL_RCC_OscConfig+0x2e4>)
 80012e6:	690a      	ldr	r2, [r1, #16]
 80012e8:	6a89      	ldr	r1, [r1, #40]	; 0x28
 80012ea:	f002 0238 	and.w	r2, r2, #56	; 0x38
 80012ee:	2a10      	cmp	r2, #16
 80012f0:	f000 812c 	beq.w	800154c <HAL_RCC_OscConfig+0x278>
 80012f4:	2a18      	cmp	r2, #24
 80012f6:	f000 8124 	beq.w	8001542 <HAL_RCC_OscConfig+0x26e>
 80012fa:	6863      	ldr	r3, [r4, #4]
 80012fc:	f5b3 3f80 	cmp.w	r3, #65536	; 0x10000
 8001300:	f000 8167 	beq.w	80015d2 <HAL_RCC_OscConfig+0x2fe>
 8001304:	2b00      	cmp	r3, #0
 8001306:	f000 817f 	beq.w	8001608 <HAL_RCC_OscConfig+0x334>
 800130a:	f5b3 2fa0 	cmp.w	r3, #327680	; 0x50000
 800130e:	4baa      	ldr	r3, [pc, #680]	; (80015b8 <HAL_RCC_OscConfig+0x2e4>)
 8001310:	681a      	ldr	r2, [r3, #0]
 8001312:	f000 8278 	beq.w	8001806 <HAL_RCC_OscConfig+0x532>
 8001316:	f422 3280 	bic.w	r2, r2, #65536	; 0x10000
 800131a:	601a      	str	r2, [r3, #0]
 800131c:	681a      	ldr	r2, [r3, #0]
 800131e:	f422 2280 	bic.w	r2, r2, #262144	; 0x40000
 8001322:	601a      	str	r2, [r3, #0]
 8001324:	f7ff fb66 	bl	80009f4 <HAL_GetTick>
 8001328:	4ea3      	ldr	r6, [pc, #652]	; (80015b8 <HAL_RCC_OscConfig+0x2e4>)
 800132a:	4605      	mov	r5, r0
 800132c:	e005      	b.n	800133a <HAL_RCC_OscConfig+0x66>
 800132e:	f7ff fb61 	bl	80009f4 <HAL_GetTick>
 8001332:	1b40      	subs	r0, r0, r5
 8001334:	2864      	cmp	r0, #100	; 0x64
 8001336:	f200 8165 	bhi.w	8001604 <HAL_RCC_OscConfig+0x330>
 800133a:	6833      	ldr	r3, [r6, #0]
 800133c:	039f      	lsls	r7, r3, #14
 800133e:	d5f6      	bpl.n	800132e <HAL_RCC_OscConfig+0x5a>
 8001340:	6823      	ldr	r3, [r4, #0]
 8001342:	0799      	lsls	r1, r3, #30
 8001344:	d521      	bpl.n	800138a <HAL_RCC_OscConfig+0xb6>
 8001346:	4a9c      	ldr	r2, [pc, #624]	; (80015b8 <HAL_RCC_OscConfig+0x2e4>)
 8001348:	6913      	ldr	r3, [r2, #16]
 800134a:	6a92      	ldr	r2, [r2, #40]	; 0x28
 800134c:	f013 0338 	ands.w	r3, r3, #56	; 0x38
 8001350:	f040 80a8 	bne.w	80014a4 <HAL_RCC_OscConfig+0x1d0>
 8001354:	4b98      	ldr	r3, [pc, #608]	; (80015b8 <HAL_RCC_OscConfig+0x2e4>)
 8001356:	681b      	ldr	r3, [r3, #0]
 8001358:	075b      	lsls	r3, r3, #29
 800135a:	d503      	bpl.n	8001364 <HAL_RCC_OscConfig+0x90>
 800135c:	68e3      	ldr	r3, [r4, #12]
 800135e:	2b00      	cmp	r3, #0
 8001360:	f000 80ed 	beq.w	800153e <HAL_RCC_OscConfig+0x26a>
 8001364:	f7ff fb5e 	bl	8000a24 <HAL_GetREVID>
 8001368:	f241 0303 	movw	r3, #4099	; 0x1003
 800136c:	4298      	cmp	r0, r3
 800136e:	f200 8189 	bhi.w	8001684 <HAL_RCC_OscConfig+0x3b0>
 8001372:	6922      	ldr	r2, [r4, #16]
 8001374:	2a40      	cmp	r2, #64	; 0x40
 8001376:	f000 824e 	beq.w	8001816 <HAL_RCC_OscConfig+0x542>
 800137a:	498f      	ldr	r1, [pc, #572]	; (80015b8 <HAL_RCC_OscConfig+0x2e4>)
 800137c:	684b      	ldr	r3, [r1, #4]
 800137e:	f423 337c 	bic.w	r3, r3, #258048	; 0x3f000
 8001382:	ea43 3302 	orr.w	r3, r3, r2, lsl #12
 8001386:	604b      	str	r3, [r1, #4]
 8001388:	6823      	ldr	r3, [r4, #0]
 800138a:	06d9      	lsls	r1, r3, #27
 800138c:	d456      	bmi.n	800143c <HAL_RCC_OscConfig+0x168>
 800138e:	071d      	lsls	r5, r3, #28
 8001390:	d517      	bpl.n	80013c2 <HAL_RCC_OscConfig+0xee>
 8001392:	6963      	ldr	r3, [r4, #20]
 8001394:	2b00      	cmp	r3, #0
 8001396:	f000 80b4 	beq.w	8001502 <HAL_RCC_OscConfig+0x22e>
 800139a:	4b87      	ldr	r3, [pc, #540]	; (80015b8 <HAL_RCC_OscConfig+0x2e4>)
 800139c:	6f5a      	ldr	r2, [r3, #116]	; 0x74
 800139e:	461e      	mov	r6, r3
 80013a0:	f042 0201 	orr.w	r2, r2, #1
 80013a4:	675a      	str	r2, [r3, #116]	; 0x74
 80013a6:	f7ff fb25 	bl	80009f4 <HAL_GetTick>
 80013aa:	4605      	mov	r5, r0
 80013ac:	e005      	b.n	80013ba <HAL_RCC_OscConfig+0xe6>
 80013ae:	f7ff fb21 	bl	80009f4 <HAL_GetTick>
 80013b2:	1b40      	subs	r0, r0, r5
 80013b4:	2802      	cmp	r0, #2
 80013b6:	f200 8125 	bhi.w	8001604 <HAL_RCC_OscConfig+0x330>
 80013ba:	6f73      	ldr	r3, [r6, #116]	; 0x74
 80013bc:	0798      	lsls	r0, r3, #30
 80013be:	d5f6      	bpl.n	80013ae <HAL_RCC_OscConfig+0xda>
 80013c0:	6823      	ldr	r3, [r4, #0]
 80013c2:	069a      	lsls	r2, r3, #26
 80013c4:	d517      	bpl.n	80013f6 <HAL_RCC_OscConfig+0x122>
 80013c6:	69a3      	ldr	r3, [r4, #24]
 80013c8:	2b00      	cmp	r3, #0
 80013ca:	f000 8134 	beq.w	8001636 <HAL_RCC_OscConfig+0x362>
 80013ce:	4b7a      	ldr	r3, [pc, #488]	; (80015b8 <HAL_RCC_OscConfig+0x2e4>)
 80013d0:	681a      	ldr	r2, [r3, #0]
 80013d2:	461e      	mov	r6, r3
 80013d4:	f442 5280 	orr.w	r2, r2, #4096	; 0x1000
 80013d8:	601a      	str	r2, [r3, #0]
 80013da:	f7ff fb0b 	bl	80009f4 <HAL_GetTick>
 80013de:	4605      	mov	r5, r0
 80013e0:	e005      	b.n	80013ee <HAL_RCC_OscConfig+0x11a>
 80013e2:	f7ff fb07 	bl	80009f4 <HAL_GetTick>
 80013e6:	1b40      	subs	r0, r0, r5
 80013e8:	2802      	cmp	r0, #2
 80013ea:	f200 810b 	bhi.w	8001604 <HAL_RCC_OscConfig+0x330>
 80013ee:	6833      	ldr	r3, [r6, #0]
 80013f0:	049f      	lsls	r7, r3, #18
 80013f2:	d5f6      	bpl.n	80013e2 <HAL_RCC_OscConfig+0x10e>
 80013f4:	6823      	ldr	r3, [r4, #0]
 80013f6:	0759      	lsls	r1, r3, #29
 80013f8:	f100 80b2 	bmi.w	8001560 <HAL_RCC_OscConfig+0x28c>
 80013fc:	6a60      	ldr	r0, [r4, #36]	; 0x24
 80013fe:	b1d8      	cbz	r0, 8001438 <HAL_RCC_OscConfig+0x164>
 8001400:	4b6d      	ldr	r3, [pc, #436]	; (80015b8 <HAL_RCC_OscConfig+0x2e4>)
 8001402:	691a      	ldr	r2, [r3, #16]
 8001404:	f002 0238 	and.w	r2, r2, #56	; 0x38
 8001408:	2a18      	cmp	r2, #24
 800140a:	f000 81ce 	beq.w	80017aa <HAL_RCC_OscConfig+0x4d6>
 800140e:	681a      	ldr	r2, [r3, #0]
 8001410:	2802      	cmp	r0, #2
 8001412:	461d      	mov	r5, r3
 8001414:	f022 7280 	bic.w	r2, r2, #16777216	; 0x1000000
 8001418:	601a      	str	r2, [r3, #0]
 800141a:	f000 8161 	beq.w	80016e0 <HAL_RCC_OscConfig+0x40c>
 800141e:	f7ff fae9 	bl	80009f4 <HAL_GetTick>
 8001422:	4604      	mov	r4, r0
 8001424:	e005      	b.n	8001432 <HAL_RCC_OscConfig+0x15e>
 8001426:	f7ff fae5 	bl	80009f4 <HAL_GetTick>
 800142a:	1b00      	subs	r0, r0, r4
 800142c:	2802      	cmp	r0, #2
 800142e:	f200 80e9 	bhi.w	8001604 <HAL_RCC_OscConfig+0x330>
 8001432:	682b      	ldr	r3, [r5, #0]
 8001434:	019b      	lsls	r3, r3, #6
 8001436:	d4f6      	bmi.n	8001426 <HAL_RCC_OscConfig+0x152>
 8001438:	2000      	movs	r0, #0
 800143a:	bdf8      	pop	{r3, r4, r5, r6, r7, pc}
 800143c:	4a5e      	ldr	r2, [pc, #376]	; (80015b8 <HAL_RCC_OscConfig+0x2e4>)
 800143e:	6913      	ldr	r3, [r2, #16]
 8001440:	6a92      	ldr	r2, [r2, #40]	; 0x28
 8001442:	f003 0338 	and.w	r3, r3, #56	; 0x38
 8001446:	2b08      	cmp	r3, #8
 8001448:	d072      	beq.n	8001530 <HAL_RCC_OscConfig+0x25c>
 800144a:	2b18      	cmp	r3, #24
 800144c:	d06c      	beq.n	8001528 <HAL_RCC_OscConfig+0x254>
 800144e:	69e3      	ldr	r3, [r4, #28]
 8001450:	2b00      	cmp	r3, #0
 8001452:	f000 8103 	beq.w	800165c <HAL_RCC_OscConfig+0x388>
 8001456:	4b58      	ldr	r3, [pc, #352]	; (80015b8 <HAL_RCC_OscConfig+0x2e4>)
 8001458:	681a      	ldr	r2, [r3, #0]
 800145a:	461e      	mov	r6, r3
 800145c:	f042 0280 	orr.w	r2, r2, #128	; 0x80
 8001460:	601a      	str	r2, [r3, #0]
 8001462:	f7ff fac7 	bl	80009f4 <HAL_GetTick>
 8001466:	4605      	mov	r5, r0
 8001468:	e005      	b.n	8001476 <HAL_RCC_OscConfig+0x1a2>
 800146a:	f7ff fac3 	bl	80009f4 <HAL_GetTick>
 800146e:	1b40      	subs	r0, r0, r5
 8001470:	2802      	cmp	r0, #2
 8001472:	f200 80c7 	bhi.w	8001604 <HAL_RCC_OscConfig+0x330>
 8001476:	6833      	ldr	r3, [r6, #0]
 8001478:	05db      	lsls	r3, r3, #23
 800147a:	d5f6      	bpl.n	800146a <HAL_RCC_OscConfig+0x196>
 800147c:	f7ff fad2 	bl	8000a24 <HAL_GetREVID>
 8001480:	f241 0303 	movw	r3, #4099	; 0x1003
 8001484:	4298      	cmp	r0, r3
 8001486:	f200 81e9 	bhi.w	800185c <HAL_RCC_OscConfig+0x588>
 800148a:	6a22      	ldr	r2, [r4, #32]
 800148c:	6873      	ldr	r3, [r6, #4]
 800148e:	2a20      	cmp	r2, #32
 8001490:	f023 43f8 	bic.w	r3, r3, #2080374784	; 0x7c000000
 8001494:	bf0c      	ite	eq
 8001496:	f043 4380 	orreq.w	r3, r3, #1073741824	; 0x40000000
 800149a:	ea43 6382 	orrne.w	r3, r3, r2, lsl #26
 800149e:	6073      	str	r3, [r6, #4]
 80014a0:	6823      	ldr	r3, [r4, #0]
 80014a2:	e774      	b.n	800138e <HAL_RCC_OscConfig+0xba>
 80014a4:	2b18      	cmp	r3, #24
 80014a6:	f000 810b 	beq.w	80016c0 <HAL_RCC_OscConfig+0x3ec>
 80014aa:	68e2      	ldr	r2, [r4, #12]
 80014ac:	2a00      	cmp	r2, #0
 80014ae:	f000 80f3 	beq.w	8001698 <HAL_RCC_OscConfig+0x3c4>
 80014b2:	4941      	ldr	r1, [pc, #260]	; (80015b8 <HAL_RCC_OscConfig+0x2e4>)
 80014b4:	680b      	ldr	r3, [r1, #0]
 80014b6:	460e      	mov	r6, r1
 80014b8:	f023 0319 	bic.w	r3, r3, #25
 80014bc:	4313      	orrs	r3, r2
 80014be:	600b      	str	r3, [r1, #0]
 80014c0:	f7ff fa98 	bl	80009f4 <HAL_GetTick>
 80014c4:	4605      	mov	r5, r0
 80014c6:	e005      	b.n	80014d4 <HAL_RCC_OscConfig+0x200>
 80014c8:	f7ff fa94 	bl	80009f4 <HAL_GetTick>
 80014cc:	1b40      	subs	r0, r0, r5
 80014ce:	2802      	cmp	r0, #2
 80014d0:	f200 8098 	bhi.w	8001604 <HAL_RCC_OscConfig+0x330>
 80014d4:	6833      	ldr	r3, [r6, #0]
 80014d6:	075f      	lsls	r7, r3, #29
 80014d8:	d5f6      	bpl.n	80014c8 <HAL_RCC_OscConfig+0x1f4>
 80014da:	f7ff faa3 	bl	8000a24 <HAL_GetREVID>
 80014de:	f241 0303 	movw	r3, #4099	; 0x1003
 80014e2:	4298      	cmp	r0, r3
 80014e4:	f200 81c3 	bhi.w	800186e <HAL_RCC_OscConfig+0x59a>
 80014e8:	6922      	ldr	r2, [r4, #16]
 80014ea:	6873      	ldr	r3, [r6, #4]
 80014ec:	2a40      	cmp	r2, #64	; 0x40
 80014ee:	f423 337c 	bic.w	r3, r3, #258048	; 0x3f000
 80014f2:	bf0c      	ite	eq
 80014f4:	f443 3300 	orreq.w	r3, r3, #131072	; 0x20000
 80014f8:	ea43 3302 	orrne.w	r3, r3, r2, lsl #12
 80014fc:	6073      	str	r3, [r6, #4]
 80014fe:	6823      	ldr	r3, [r4, #0]
 8001500:	e743      	b.n	800138a <HAL_RCC_OscConfig+0xb6>
 8001502:	4b2d      	ldr	r3, [pc, #180]	; (80015b8 <HAL_RCC_OscConfig+0x2e4>)
 8001504:	6f5a      	ldr	r2, [r3, #116]	; 0x74
 8001506:	461e      	mov	r6, r3
 8001508:	f022 0201 	bic.w	r2, r2, #1
 800150c:	675a      	str	r2, [r3, #116]	; 0x74
 800150e:	f7ff fa71 	bl	80009f4 <HAL_GetTick>
 8001512:	4605      	mov	r5, r0
 8001514:	e004      	b.n	8001520 <HAL_RCC_OscConfig+0x24c>
 8001516:	f7ff fa6d 	bl	80009f4 <HAL_GetTick>
 800151a:	1b40      	subs	r0, r0, r5
 800151c:	2802      	cmp	r0, #2
 800151e:	d871      	bhi.n	8001604 <HAL_RCC_OscConfig+0x330>
 8001520:	6f73      	ldr	r3, [r6, #116]	; 0x74
 8001522:	0799      	lsls	r1, r3, #30
 8001524:	d4f7      	bmi.n	8001516 <HAL_RCC_OscConfig+0x242>
 8001526:	e74b      	b.n	80013c0 <HAL_RCC_OscConfig+0xec>
 8001528:	f002 0203 	and.w	r2, r2, #3
 800152c:	2a01      	cmp	r2, #1
 800152e:	d18e      	bne.n	800144e <HAL_RCC_OscConfig+0x17a>
 8001530:	4b21      	ldr	r3, [pc, #132]	; (80015b8 <HAL_RCC_OscConfig+0x2e4>)
 8001532:	681b      	ldr	r3, [r3, #0]
 8001534:	05da      	lsls	r2, r3, #23
 8001536:	d552      	bpl.n	80015de <HAL_RCC_OscConfig+0x30a>
 8001538:	69e3      	ldr	r3, [r4, #28]
 800153a:	2b80      	cmp	r3, #128	; 0x80
 800153c:	d04f      	beq.n	80015de <HAL_RCC_OscConfig+0x30a>
 800153e:	2001      	movs	r0, #1
 8001540:	bdf8      	pop	{r3, r4, r5, r6, r7, pc}
 8001542:	f001 0103 	and.w	r1, r1, #3
 8001546:	2902      	cmp	r1, #2
 8001548:	f47f aed7 	bne.w	80012fa <HAL_RCC_OscConfig+0x26>
 800154c:	4a1a      	ldr	r2, [pc, #104]	; (80015b8 <HAL_RCC_OscConfig+0x2e4>)
 800154e:	6812      	ldr	r2, [r2, #0]
 8001550:	0392      	lsls	r2, r2, #14
 8001552:	f57f aef6 	bpl.w	8001342 <HAL_RCC_OscConfig+0x6e>
 8001556:	6862      	ldr	r2, [r4, #4]
 8001558:	2a00      	cmp	r2, #0
 800155a:	f47f aef2 	bne.w	8001342 <HAL_RCC_OscConfig+0x6e>
 800155e:	e7ee      	b.n	800153e <HAL_RCC_OscConfig+0x26a>
 8001560:	4b16      	ldr	r3, [pc, #88]	; (80015bc <HAL_RCC_OscConfig+0x2e8>)
 8001562:	681a      	ldr	r2, [r3, #0]
 8001564:	461e      	mov	r6, r3
 8001566:	f442 7280 	orr.w	r2, r2, #256	; 0x100
 800156a:	601a      	str	r2, [r3, #0]
 800156c:	f7ff fa42 	bl	80009f4 <HAL_GetTick>
 8001570:	4605      	mov	r5, r0
 8001572:	e004      	b.n	800157e <HAL_RCC_OscConfig+0x2aa>
 8001574:	f7ff fa3e 	bl	80009f4 <HAL_GetTick>
 8001578:	1b40      	subs	r0, r0, r5
 800157a:	2864      	cmp	r0, #100	; 0x64
 800157c:	d842      	bhi.n	8001604 <HAL_RCC_OscConfig+0x330>
 800157e:	6833      	ldr	r3, [r6, #0]
 8001580:	05da      	lsls	r2, r3, #23
 8001582:	d5f7      	bpl.n	8001574 <HAL_RCC_OscConfig+0x2a0>
 8001584:	68a3      	ldr	r3, [r4, #8]
 8001586:	2b01      	cmp	r3, #1
 8001588:	f000 817a 	beq.w	8001880 <HAL_RCC_OscConfig+0x5ac>
 800158c:	2b00      	cmp	r3, #0
 800158e:	f000 814b 	beq.w	8001828 <HAL_RCC_OscConfig+0x554>
 8001592:	2b05      	cmp	r3, #5
 8001594:	4b08      	ldr	r3, [pc, #32]	; (80015b8 <HAL_RCC_OscConfig+0x2e4>)
 8001596:	6f1a      	ldr	r2, [r3, #112]	; 0x70
 8001598:	f000 8187 	beq.w	80018aa <HAL_RCC_OscConfig+0x5d6>
 800159c:	f022 0201 	bic.w	r2, r2, #1
 80015a0:	671a      	str	r2, [r3, #112]	; 0x70
 80015a2:	6f1a      	ldr	r2, [r3, #112]	; 0x70
 80015a4:	f022 0204 	bic.w	r2, r2, #4
 80015a8:	671a      	str	r2, [r3, #112]	; 0x70
 80015aa:	f7ff fa23 	bl	80009f4 <HAL_GetTick>
 80015ae:	4e02      	ldr	r6, [pc, #8]	; (80015b8 <HAL_RCC_OscConfig+0x2e4>)
 80015b0:	f241 3788 	movw	r7, #5000	; 0x1388
 80015b4:	4605      	mov	r5, r0
 80015b6:	e008      	b.n	80015ca <HAL_RCC_OscConfig+0x2f6>
 80015b8:	58024400 	.word	0x58024400
 80015bc:	58024800 	.word	0x58024800
 80015c0:	f7ff fa18 	bl	80009f4 <HAL_GetTick>
 80015c4:	1b40      	subs	r0, r0, r5
 80015c6:	42b8      	cmp	r0, r7
 80015c8:	d81c      	bhi.n	8001604 <HAL_RCC_OscConfig+0x330>
 80015ca:	6f33      	ldr	r3, [r6, #112]	; 0x70
 80015cc:	079b      	lsls	r3, r3, #30
 80015ce:	d5f7      	bpl.n	80015c0 <HAL_RCC_OscConfig+0x2ec>
 80015d0:	e714      	b.n	80013fc <HAL_RCC_OscConfig+0x128>
 80015d2:	4aae      	ldr	r2, [pc, #696]	; (800188c <HAL_RCC_OscConfig+0x5b8>)
 80015d4:	6813      	ldr	r3, [r2, #0]
 80015d6:	f443 3380 	orr.w	r3, r3, #65536	; 0x10000
 80015da:	6013      	str	r3, [r2, #0]
 80015dc:	e6a2      	b.n	8001324 <HAL_RCC_OscConfig+0x50>
 80015de:	f7ff fa21 	bl	8000a24 <HAL_GetREVID>
 80015e2:	f241 0303 	movw	r3, #4099	; 0x1003
 80015e6:	4298      	cmp	r0, r3
 80015e8:	d870      	bhi.n	80016cc <HAL_RCC_OscConfig+0x3f8>
 80015ea:	6a22      	ldr	r2, [r4, #32]
 80015ec:	2a20      	cmp	r2, #32
 80015ee:	f000 8153 	beq.w	8001898 <HAL_RCC_OscConfig+0x5c4>
 80015f2:	49a6      	ldr	r1, [pc, #664]	; (800188c <HAL_RCC_OscConfig+0x5b8>)
 80015f4:	684b      	ldr	r3, [r1, #4]
 80015f6:	f023 43f8 	bic.w	r3, r3, #2080374784	; 0x7c000000
 80015fa:	ea43 6382 	orr.w	r3, r3, r2, lsl #26
 80015fe:	604b      	str	r3, [r1, #4]
 8001600:	6823      	ldr	r3, [r4, #0]
 8001602:	e6c4      	b.n	800138e <HAL_RCC_OscConfig+0xba>
 8001604:	2003      	movs	r0, #3
 8001606:	bdf8      	pop	{r3, r4, r5, r6, r7, pc}
 8001608:	4ba0      	ldr	r3, [pc, #640]	; (800188c <HAL_RCC_OscConfig+0x5b8>)
 800160a:	681a      	ldr	r2, [r3, #0]
 800160c:	461e      	mov	r6, r3
 800160e:	f422 3280 	bic.w	r2, r2, #65536	; 0x10000
 8001612:	601a      	str	r2, [r3, #0]
 8001614:	681a      	ldr	r2, [r3, #0]
 8001616:	f422 2280 	bic.w	r2, r2, #262144	; 0x40000
 800161a:	601a      	str	r2, [r3, #0]
 800161c:	f7ff f9ea 	bl	80009f4 <HAL_GetTick>
 8001620:	4605      	mov	r5, r0
 8001622:	e004      	b.n	800162e <HAL_RCC_OscConfig+0x35a>
 8001624:	f7ff f9e6 	bl	80009f4 <HAL_GetTick>
 8001628:	1b40      	subs	r0, r0, r5
 800162a:	2864      	cmp	r0, #100	; 0x64
 800162c:	d8ea      	bhi.n	8001604 <HAL_RCC_OscConfig+0x330>
 800162e:	6833      	ldr	r3, [r6, #0]
 8001630:	0398      	lsls	r0, r3, #14
 8001632:	d4f7      	bmi.n	8001624 <HAL_RCC_OscConfig+0x350>
 8001634:	e684      	b.n	8001340 <HAL_RCC_OscConfig+0x6c>
 8001636:	4b95      	ldr	r3, [pc, #596]	; (800188c <HAL_RCC_OscConfig+0x5b8>)
 8001638:	681a      	ldr	r2, [r3, #0]
 800163a:	461e      	mov	r6, r3
 800163c:	f422 5280 	bic.w	r2, r2, #4096	; 0x1000
 8001640:	601a      	str	r2, [r3, #0]
 8001642:	f7ff f9d7 	bl	80009f4 <HAL_GetTick>
 8001646:	4605      	mov	r5, r0
 8001648:	e004      	b.n	8001654 <HAL_RCC_OscConfig+0x380>
 800164a:	f7ff f9d3 	bl	80009f4 <HAL_GetTick>
 800164e:	1b40      	subs	r0, r0, r5
 8001650:	2802      	cmp	r0, #2
 8001652:	d8d7      	bhi.n	8001604 <HAL_RCC_OscConfig+0x330>
 8001654:	6833      	ldr	r3, [r6, #0]
 8001656:	0498      	lsls	r0, r3, #18
 8001658:	d4f7      	bmi.n	800164a <HAL_RCC_OscConfig+0x376>
 800165a:	e6cb      	b.n	80013f4 <HAL_RCC_OscConfig+0x120>
 800165c:	4b8b      	ldr	r3, [pc, #556]	; (800188c <HAL_RCC_OscConfig+0x5b8>)
 800165e:	681a      	ldr	r2, [r3, #0]
 8001660:	461e      	mov	r6, r3
 8001662:	f022 0280 	bic.w	r2, r2, #128	; 0x80
 8001666:	601a      	str	r2, [r3, #0]
 8001668:	f7ff f9c4 	bl	80009f4 <HAL_GetTick>
 800166c:	4605      	mov	r5, r0
 800166e:	e004      	b.n	800167a <HAL_RCC_OscConfig+0x3a6>
 8001670:	f7ff f9c0 	bl	80009f4 <HAL_GetTick>
 8001674:	1b40      	subs	r0, r0, r5
 8001676:	2802      	cmp	r0, #2
 8001678:	d8c4      	bhi.n	8001604 <HAL_RCC_OscConfig+0x330>
 800167a:	6833      	ldr	r3, [r6, #0]
 800167c:	05df      	lsls	r7, r3, #23
 800167e:	d4f7      	bmi.n	8001670 <HAL_RCC_OscConfig+0x39c>
 8001680:	6823      	ldr	r3, [r4, #0]
 8001682:	e684      	b.n	800138e <HAL_RCC_OscConfig+0xba>
 8001684:	4a81      	ldr	r2, [pc, #516]	; (800188c <HAL_RCC_OscConfig+0x5b8>)
 8001686:	6921      	ldr	r1, [r4, #16]
 8001688:	6853      	ldr	r3, [r2, #4]
 800168a:	f023 43fe 	bic.w	r3, r3, #2130706432	; 0x7f000000
 800168e:	ea43 6301 	orr.w	r3, r3, r1, lsl #24
 8001692:	6053      	str	r3, [r2, #4]
 8001694:	6823      	ldr	r3, [r4, #0]
 8001696:	e678      	b.n	800138a <HAL_RCC_OscConfig+0xb6>
 8001698:	4b7c      	ldr	r3, [pc, #496]	; (800188c <HAL_RCC_OscConfig+0x5b8>)
 800169a:	681a      	ldr	r2, [r3, #0]
 800169c:	461e      	mov	r6, r3
 800169e:	f022 0201 	bic.w	r2, r2, #1
 80016a2:	601a      	str	r2, [r3, #0]
 80016a4:	f7ff f9a6 	bl	80009f4 <HAL_GetTick>
 80016a8:	4605      	mov	r5, r0
 80016aa:	e004      	b.n	80016b6 <HAL_RCC_OscConfig+0x3e2>
 80016ac:	f7ff f9a2 	bl	80009f4 <HAL_GetTick>
 80016b0:	1b40      	subs	r0, r0, r5
 80016b2:	2802      	cmp	r0, #2
 80016b4:	d8a6      	bhi.n	8001604 <HAL_RCC_OscConfig+0x330>
 80016b6:	6833      	ldr	r3, [r6, #0]
 80016b8:	0758      	lsls	r0, r3, #29
 80016ba:	d4f7      	bmi.n	80016ac <HAL_RCC_OscConfig+0x3d8>
 80016bc:	6823      	ldr	r3, [r4, #0]
 80016be:	e664      	b.n	800138a <HAL_RCC_OscConfig+0xb6>
 80016c0:	0792      	lsls	r2, r2, #30
 80016c2:	f47f aef2 	bne.w	80014aa <HAL_RCC_OscConfig+0x1d6>
 80016c6:	e645      	b.n	8001354 <HAL_RCC_OscConfig+0x80>
 80016c8:	2001      	movs	r0, #1
 80016ca:	4770      	bx	lr
 80016cc:	4a6f      	ldr	r2, [pc, #444]	; (800188c <HAL_RCC_OscConfig+0x5b8>)
 80016ce:	6a21      	ldr	r1, [r4, #32]
 80016d0:	68d3      	ldr	r3, [r2, #12]
 80016d2:	f023 537c 	bic.w	r3, r3, #1056964608	; 0x3f000000
 80016d6:	ea43 6301 	orr.w	r3, r3, r1, lsl #24
 80016da:	60d3      	str	r3, [r2, #12]
 80016dc:	6823      	ldr	r3, [r4, #0]
 80016de:	e656      	b.n	800138e <HAL_RCC_OscConfig+0xba>
 80016e0:	f7ff f988 	bl	80009f4 <HAL_GetTick>
 80016e4:	4606      	mov	r6, r0
 80016e6:	e004      	b.n	80016f2 <HAL_RCC_OscConfig+0x41e>
 80016e8:	f7ff f984 	bl	80009f4 <HAL_GetTick>
 80016ec:	1b80      	subs	r0, r0, r6
 80016ee:	2802      	cmp	r0, #2
 80016f0:	d888      	bhi.n	8001604 <HAL_RCC_OscConfig+0x330>
 80016f2:	682b      	ldr	r3, [r5, #0]
 80016f4:	0199      	lsls	r1, r3, #6
 80016f6:	d4f7      	bmi.n	80016e8 <HAL_RCC_OscConfig+0x414>
 80016f8:	6aaa      	ldr	r2, [r5, #40]	; 0x28
 80016fa:	4b65      	ldr	r3, [pc, #404]	; (8001890 <HAL_RCC_OscConfig+0x5bc>)
 80016fc:	6aa0      	ldr	r0, [r4, #40]	; 0x28
 80016fe:	4013      	ands	r3, r2
 8001700:	6ae2      	ldr	r2, [r4, #44]	; 0x2c
 8001702:	4964      	ldr	r1, [pc, #400]	; (8001894 <HAL_RCC_OscConfig+0x5c0>)
 8001704:	4303      	orrs	r3, r0
 8001706:	4e61      	ldr	r6, [pc, #388]	; (800188c <HAL_RCC_OscConfig+0x5b8>)
 8001708:	ea43 1302 	orr.w	r3, r3, r2, lsl #4
 800170c:	62ab      	str	r3, [r5, #40]	; 0x28
 800170e:	6b27      	ldr	r7, [r4, #48]	; 0x30
 8001710:	e9d4 320d 	ldrd	r3, r2, [r4, #52]	; 0x34
 8001714:	3f01      	subs	r7, #1
 8001716:	1e50      	subs	r0, r2, #1
 8001718:	3b01      	subs	r3, #1
 800171a:	6be2      	ldr	r2, [r4, #60]	; 0x3c
 800171c:	f3c7 0708 	ubfx	r7, r7, #0, #9
 8001720:	025b      	lsls	r3, r3, #9
 8001722:	0400      	lsls	r0, r0, #16
 8001724:	3a01      	subs	r2, #1
 8001726:	b29b      	uxth	r3, r3
 8001728:	f400 00fe 	and.w	r0, r0, #8323072	; 0x7f0000
 800172c:	0612      	lsls	r2, r2, #24
 800172e:	4303      	orrs	r3, r0
 8001730:	f002 42fe 	and.w	r2, r2, #2130706432	; 0x7f000000
 8001734:	433b      	orrs	r3, r7
 8001736:	4313      	orrs	r3, r2
 8001738:	632b      	str	r3, [r5, #48]	; 0x30
 800173a:	6aeb      	ldr	r3, [r5, #44]	; 0x2c
 800173c:	f023 0301 	bic.w	r3, r3, #1
 8001740:	62eb      	str	r3, [r5, #44]	; 0x2c
 8001742:	6b6a      	ldr	r2, [r5, #52]	; 0x34
 8001744:	6ca3      	ldr	r3, [r4, #72]	; 0x48
 8001746:	4011      	ands	r1, r2
 8001748:	ea41 01c3 	orr.w	r1, r1, r3, lsl #3
 800174c:	6369      	str	r1, [r5, #52]	; 0x34
 800174e:	6aeb      	ldr	r3, [r5, #44]	; 0x2c
 8001750:	6c22      	ldr	r2, [r4, #64]	; 0x40
 8001752:	f023 030c 	bic.w	r3, r3, #12
 8001756:	4313      	orrs	r3, r2
 8001758:	62eb      	str	r3, [r5, #44]	; 0x2c
 800175a:	6aeb      	ldr	r3, [r5, #44]	; 0x2c
 800175c:	6c62      	ldr	r2, [r4, #68]	; 0x44
 800175e:	f023 0302 	bic.w	r3, r3, #2
 8001762:	4313      	orrs	r3, r2
 8001764:	62eb      	str	r3, [r5, #44]	; 0x2c
 8001766:	6aeb      	ldr	r3, [r5, #44]	; 0x2c
 8001768:	f443 3380 	orr.w	r3, r3, #65536	; 0x10000
 800176c:	62eb      	str	r3, [r5, #44]	; 0x2c
 800176e:	6aeb      	ldr	r3, [r5, #44]	; 0x2c
 8001770:	f443 3300 	orr.w	r3, r3, #131072	; 0x20000
 8001774:	62eb      	str	r3, [r5, #44]	; 0x2c
 8001776:	6aeb      	ldr	r3, [r5, #44]	; 0x2c
 8001778:	f443 2380 	orr.w	r3, r3, #262144	; 0x40000
 800177c:	62eb      	str	r3, [r5, #44]	; 0x2c
 800177e:	6aeb      	ldr	r3, [r5, #44]	; 0x2c
 8001780:	f043 0301 	orr.w	r3, r3, #1
 8001784:	62eb      	str	r3, [r5, #44]	; 0x2c
 8001786:	682b      	ldr	r3, [r5, #0]
 8001788:	f043 7380 	orr.w	r3, r3, #16777216	; 0x1000000
 800178c:	602b      	str	r3, [r5, #0]
 800178e:	f7ff f931 	bl	80009f4 <HAL_GetTick>
 8001792:	4604      	mov	r4, r0
 8001794:	e005      	b.n	80017a2 <HAL_RCC_OscConfig+0x4ce>
 8001796:	f7ff f92d 	bl	80009f4 <HAL_GetTick>
 800179a:	1b00      	subs	r0, r0, r4
 800179c:	2802      	cmp	r0, #2
 800179e:	f63f af31 	bhi.w	8001604 <HAL_RCC_OscConfig+0x330>
 80017a2:	6833      	ldr	r3, [r6, #0]
 80017a4:	019a      	lsls	r2, r3, #6
 80017a6:	d5f6      	bpl.n	8001796 <HAL_RCC_OscConfig+0x4c2>
 80017a8:	e646      	b.n	8001438 <HAL_RCC_OscConfig+0x164>
 80017aa:	2801      	cmp	r0, #1
 80017ac:	6a9a      	ldr	r2, [r3, #40]	; 0x28
 80017ae:	6b1d      	ldr	r5, [r3, #48]	; 0x30
 80017b0:	f43f ae43 	beq.w	800143a <HAL_RCC_OscConfig+0x166>
 80017b4:	f002 0303 	and.w	r3, r2, #3
 80017b8:	6aa1      	ldr	r1, [r4, #40]	; 0x28
 80017ba:	428b      	cmp	r3, r1
 80017bc:	f47f aebf 	bne.w	800153e <HAL_RCC_OscConfig+0x26a>
 80017c0:	f3c2 1205 	ubfx	r2, r2, #4, #6
 80017c4:	6ae3      	ldr	r3, [r4, #44]	; 0x2c
 80017c6:	429a      	cmp	r2, r3
 80017c8:	f47f aeb9 	bne.w	800153e <HAL_RCC_OscConfig+0x26a>
 80017cc:	6b23      	ldr	r3, [r4, #48]	; 0x30
 80017ce:	f3c5 0208 	ubfx	r2, r5, #0, #9
 80017d2:	3b01      	subs	r3, #1
 80017d4:	429a      	cmp	r2, r3
 80017d6:	f47f aeb2 	bne.w	800153e <HAL_RCC_OscConfig+0x26a>
 80017da:	6b63      	ldr	r3, [r4, #52]	; 0x34
 80017dc:	f3c5 2246 	ubfx	r2, r5, #9, #7
 80017e0:	3b01      	subs	r3, #1
 80017e2:	429a      	cmp	r2, r3
 80017e4:	f47f aeab 	bne.w	800153e <HAL_RCC_OscConfig+0x26a>
 80017e8:	6ba3      	ldr	r3, [r4, #56]	; 0x38
 80017ea:	f3c5 4206 	ubfx	r2, r5, #16, #7
 80017ee:	3b01      	subs	r3, #1
 80017f0:	429a      	cmp	r2, r3
 80017f2:	f47f aea4 	bne.w	800153e <HAL_RCC_OscConfig+0x26a>
 80017f6:	6be0      	ldr	r0, [r4, #60]	; 0x3c
 80017f8:	f3c5 6506 	ubfx	r5, r5, #24, #7
 80017fc:	3801      	subs	r0, #1
 80017fe:	1a28      	subs	r0, r5, r0
 8001800:	bf18      	it	ne
 8001802:	2001      	movne	r0, #1
 8001804:	bdf8      	pop	{r3, r4, r5, r6, r7, pc}
 8001806:	f442 2280 	orr.w	r2, r2, #262144	; 0x40000
 800180a:	601a      	str	r2, [r3, #0]
 800180c:	681a      	ldr	r2, [r3, #0]
 800180e:	f442 3280 	orr.w	r2, r2, #65536	; 0x10000
 8001812:	601a      	str	r2, [r3, #0]
 8001814:	e586      	b.n	8001324 <HAL_RCC_OscConfig+0x50>
 8001816:	4a1d      	ldr	r2, [pc, #116]	; (800188c <HAL_RCC_OscConfig+0x5b8>)
 8001818:	6853      	ldr	r3, [r2, #4]
 800181a:	f423 337c 	bic.w	r3, r3, #258048	; 0x3f000
 800181e:	f443 3300 	orr.w	r3, r3, #131072	; 0x20000
 8001822:	6053      	str	r3, [r2, #4]
 8001824:	6823      	ldr	r3, [r4, #0]
 8001826:	e5b0      	b.n	800138a <HAL_RCC_OscConfig+0xb6>
 8001828:	4b18      	ldr	r3, [pc, #96]	; (800188c <HAL_RCC_OscConfig+0x5b8>)
 800182a:	f241 3788 	movw	r7, #5000	; 0x1388
 800182e:	6f1a      	ldr	r2, [r3, #112]	; 0x70
 8001830:	461e      	mov	r6, r3
 8001832:	f022 0201 	bic.w	r2, r2, #1
 8001836:	671a      	str	r2, [r3, #112]	; 0x70
 8001838:	6f1a      	ldr	r2, [r3, #112]	; 0x70
 800183a:	f022 0204 	bic.w	r2, r2, #4
 800183e:	671a      	str	r2, [r3, #112]	; 0x70
 8001840:	f7ff f8d8 	bl	80009f4 <HAL_GetTick>
 8001844:	4605      	mov	r5, r0
 8001846:	e005      	b.n	8001854 <HAL_RCC_OscConfig+0x580>
 8001848:	f7ff f8d4 	bl	80009f4 <HAL_GetTick>
 800184c:	1b40      	subs	r0, r0, r5
 800184e:	42b8      	cmp	r0, r7
 8001850:	f63f aed8 	bhi.w	8001604 <HAL_RCC_OscConfig+0x330>
 8001854:	6f33      	ldr	r3, [r6, #112]	; 0x70
 8001856:	0798      	lsls	r0, r3, #30
 8001858:	d4f6      	bmi.n	8001848 <HAL_RCC_OscConfig+0x574>
 800185a:	e5cf      	b.n	80013fc <HAL_RCC_OscConfig+0x128>
 800185c:	68f3      	ldr	r3, [r6, #12]
 800185e:	6a22      	ldr	r2, [r4, #32]
 8001860:	f023 537c 	bic.w	r3, r3, #1056964608	; 0x3f000000
 8001864:	ea43 6302 	orr.w	r3, r3, r2, lsl #24
 8001868:	60f3      	str	r3, [r6, #12]
 800186a:	6823      	ldr	r3, [r4, #0]
 800186c:	e58f      	b.n	800138e <HAL_RCC_OscConfig+0xba>
 800186e:	6873      	ldr	r3, [r6, #4]
 8001870:	6922      	ldr	r2, [r4, #16]
 8001872:	f023 43fe 	bic.w	r3, r3, #2130706432	; 0x7f000000
 8001876:	ea43 6302 	orr.w	r3, r3, r2, lsl #24
 800187a:	6073      	str	r3, [r6, #4]
 800187c:	6823      	ldr	r3, [r4, #0]
 800187e:	e584      	b.n	800138a <HAL_RCC_OscConfig+0xb6>
 8001880:	4a02      	ldr	r2, [pc, #8]	; (800188c <HAL_RCC_OscConfig+0x5b8>)
 8001882:	6f13      	ldr	r3, [r2, #112]	; 0x70
 8001884:	f043 0301 	orr.w	r3, r3, #1
 8001888:	6713      	str	r3, [r2, #112]	; 0x70
 800188a:	e68e      	b.n	80015aa <HAL_RCC_OscConfig+0x2d6>
 800188c:	58024400 	.word	0x58024400
 8001890:	fffffc0c 	.word	0xfffffc0c
 8001894:	ffff0007 	.word	0xffff0007
 8001898:	4a08      	ldr	r2, [pc, #32]	; (80018bc <HAL_RCC_OscConfig+0x5e8>)
 800189a:	6853      	ldr	r3, [r2, #4]
 800189c:	f023 43f8 	bic.w	r3, r3, #2080374784	; 0x7c000000
 80018a0:	f043 4380 	orr.w	r3, r3, #1073741824	; 0x40000000
 80018a4:	6053      	str	r3, [r2, #4]
 80018a6:	6823      	ldr	r3, [r4, #0]
 80018a8:	e571      	b.n	800138e <HAL_RCC_OscConfig+0xba>
 80018aa:	f042 0204 	orr.w	r2, r2, #4
 80018ae:	671a      	str	r2, [r3, #112]	; 0x70
 80018b0:	6f1a      	ldr	r2, [r3, #112]	; 0x70
 80018b2:	f042 0201 	orr.w	r2, r2, #1
 80018b6:	671a      	str	r2, [r3, #112]	; 0x70
 80018b8:	e677      	b.n	80015aa <HAL_RCC_OscConfig+0x2d6>
 80018ba:	bf00      	nop
 80018bc:	58024400 	.word	0x58024400

080018c0 <HAL_RCC_GetSysClockFreq>:
 80018c0:	4a47      	ldr	r2, [pc, #284]	; (80019e0 <HAL_RCC_GetSysClockFreq+0x120>)
 80018c2:	6913      	ldr	r3, [r2, #16]
 80018c4:	f003 0338 	and.w	r3, r3, #56	; 0x38
 80018c8:	2b10      	cmp	r3, #16
 80018ca:	d004      	beq.n	80018d6 <HAL_RCC_GetSysClockFreq+0x16>
 80018cc:	2b18      	cmp	r3, #24
 80018ce:	d00d      	beq.n	80018ec <HAL_RCC_GetSysClockFreq+0x2c>
 80018d0:	b11b      	cbz	r3, 80018da <HAL_RCC_GetSysClockFreq+0x1a>
 80018d2:	4844      	ldr	r0, [pc, #272]	; (80019e4 <HAL_RCC_GetSysClockFreq+0x124>)
 80018d4:	4770      	bx	lr
 80018d6:	4844      	ldr	r0, [pc, #272]	; (80019e8 <HAL_RCC_GetSysClockFreq+0x128>)
 80018d8:	4770      	bx	lr
 80018da:	6813      	ldr	r3, [r2, #0]
 80018dc:	0699      	lsls	r1, r3, #26
 80018de:	d54a      	bpl.n	8001976 <HAL_RCC_GetSysClockFreq+0xb6>
 80018e0:	6813      	ldr	r3, [r2, #0]
 80018e2:	4842      	ldr	r0, [pc, #264]	; (80019ec <HAL_RCC_GetSysClockFreq+0x12c>)
 80018e4:	f3c3 03c1 	ubfx	r3, r3, #3, #2
 80018e8:	40d8      	lsrs	r0, r3
 80018ea:	4770      	bx	lr
 80018ec:	6a93      	ldr	r3, [r2, #40]	; 0x28
 80018ee:	b430      	push	{r4, r5}
 80018f0:	6a94      	ldr	r4, [r2, #40]	; 0x28
 80018f2:	6ad1      	ldr	r1, [r2, #44]	; 0x2c
 80018f4:	f414 7f7c 	tst.w	r4, #1008	; 0x3f0
 80018f8:	f3c4 1005 	ubfx	r0, r4, #4, #6
 80018fc:	6b55      	ldr	r5, [r2, #52]	; 0x34
 80018fe:	d038      	beq.n	8001972 <HAL_RCC_GetSysClockFreq+0xb2>
 8001900:	f3c5 05cc 	ubfx	r5, r5, #3, #13
 8001904:	f001 0101 	and.w	r1, r1, #1
 8001908:	f003 0303 	and.w	r3, r3, #3
 800190c:	fb01 f105 	mul.w	r1, r1, r5
 8001910:	2b01      	cmp	r3, #1
 8001912:	ee07 1a90 	vmov	s15, r1
 8001916:	eeb8 7ae7 	vcvt.f32.s32	s14, s15
 800191a:	d002      	beq.n	8001922 <HAL_RCC_GetSysClockFreq+0x62>
 800191c:	2b02      	cmp	r3, #2
 800191e:	d02c      	beq.n	800197a <HAL_RCC_GetSysClockFreq+0xba>
 8001920:	b393      	cbz	r3, 8001988 <HAL_RCC_GetSysClockFreq+0xc8>
 8001922:	ee07 0a90 	vmov	s15, r0
 8001926:	eddf 6a32 	vldr	s13, [pc, #200]	; 80019f0 <HAL_RCC_GetSysClockFreq+0x130>
 800192a:	eef8 7ae7 	vcvt.f32.s32	s15, s15
 800192e:	6b13      	ldr	r3, [r2, #48]	; 0x30
 8001930:	ee86 6aa7 	vdiv.f32	s12, s13, s15
 8001934:	eddf 5a2f 	vldr	s11, [pc, #188]	; 80019f4 <HAL_RCC_GetSysClockFreq+0x134>
 8001938:	f3c3 0308 	ubfx	r3, r3, #0, #9
 800193c:	ee06 3a90 	vmov	s13, r3
 8001940:	eeb7 5a00 	vmov.f32	s10, #112	; 0x3f800000  1.0
 8001944:	eef8 6ae6 	vcvt.f32.s32	s13, s13
 8001948:	ee76 6a85 	vadd.f32	s13, s13, s10
 800194c:	eee7 6a25 	vfma.f32	s13, s14, s11
 8001950:	ee66 6a26 	vmul.f32	s13, s12, s13
 8001954:	4b22      	ldr	r3, [pc, #136]	; (80019e0 <HAL_RCC_GetSysClockFreq+0x120>)
 8001956:	6b1b      	ldr	r3, [r3, #48]	; 0x30
 8001958:	f3c3 2346 	ubfx	r3, r3, #9, #7
 800195c:	3301      	adds	r3, #1
 800195e:	ee07 3a90 	vmov	s15, r3
 8001962:	eeb8 7ae7 	vcvt.f32.s32	s14, s15
 8001966:	eec6 7a87 	vdiv.f32	s15, s13, s14
 800196a:	eefc 7ae7 	vcvt.u32.f32	s15, s15
 800196e:	ee17 0a90 	vmov	r0, s15
 8001972:	bc30      	pop	{r4, r5}
 8001974:	4770      	bx	lr
 8001976:	481d      	ldr	r0, [pc, #116]	; (80019ec <HAL_RCC_GetSysClockFreq+0x12c>)
 8001978:	4770      	bx	lr
 800197a:	ee07 0a90 	vmov	s15, r0
 800197e:	eddf 6a1e 	vldr	s13, [pc, #120]	; 80019f8 <HAL_RCC_GetSysClockFreq+0x138>
 8001982:	eef8 7ae7 	vcvt.f32.s32	s15, s15
 8001986:	e7d2      	b.n	800192e <HAL_RCC_GetSysClockFreq+0x6e>
 8001988:	6813      	ldr	r3, [r2, #0]
 800198a:	069b      	lsls	r3, r3, #26
 800198c:	d520      	bpl.n	80019d0 <HAL_RCC_GetSysClockFreq+0x110>
 800198e:	6813      	ldr	r3, [r2, #0]
 8001990:	ee07 0a90 	vmov	s15, r0
 8001994:	4915      	ldr	r1, [pc, #84]	; (80019ec <HAL_RCC_GetSysClockFreq+0x12c>)
 8001996:	eef7 4a00 	vmov.f32	s9, #112	; 0x3f800000  1.0
 800199a:	f3c3 00c1 	ubfx	r0, r3, #3, #2
 800199e:	eef8 7ae7 	vcvt.f32.s32	s15, s15
 80019a2:	6b13      	ldr	r3, [r2, #48]	; 0x30
 80019a4:	40c1      	lsrs	r1, r0
 80019a6:	ed9f 5a13 	vldr	s10, [pc, #76]	; 80019f4 <HAL_RCC_GetSysClockFreq+0x134>
 80019aa:	f3c3 0308 	ubfx	r3, r3, #0, #9
 80019ae:	ee06 1a10 	vmov	s12, r1
 80019b2:	ee06 3a90 	vmov	s13, r3
 80019b6:	eef8 5ac6 	vcvt.f32.s32	s11, s12
 80019ba:	eef8 6ae6 	vcvt.f32.s32	s13, s13
 80019be:	ee85 6aa7 	vdiv.f32	s12, s11, s15
 80019c2:	ee76 6aa4 	vadd.f32	s13, s13, s9
 80019c6:	eee7 6a05 	vfma.f32	s13, s14, s10
 80019ca:	ee66 6a26 	vmul.f32	s13, s12, s13
 80019ce:	e7c1      	b.n	8001954 <HAL_RCC_GetSysClockFreq+0x94>
 80019d0:	ee07 0a90 	vmov	s15, r0
 80019d4:	eddf 6a09 	vldr	s13, [pc, #36]	; 80019fc <HAL_RCC_GetSysClockFreq+0x13c>
 80019d8:	eef8 7ae7 	vcvt.f32.s32	s15, s15
 80019dc:	e7a7      	b.n	800192e <HAL_RCC_GetSysClockFreq+0x6e>
 80019de:	bf00      	nop
 80019e0:	58024400 	.word	0x58024400
 80019e4:	003d0900 	.word	0x003d0900
 80019e8:	017d7840 	.word	0x017d7840
 80019ec:	03d09000 	.word	0x03d09000
 80019f0:	4a742400 	.word	0x4a742400
 80019f4:	39000000 	.word	0x39000000
 80019f8:	4bbebc20 	.word	0x4bbebc20
 80019fc:	4c742400 	.word	0x4c742400

08001a00 <HAL_RCC_ClockConfig>:
 8001a00:	2800      	cmp	r0, #0
 8001a02:	f000 810e 	beq.w	8001c22 <HAL_RCC_ClockConfig+0x222>
 8001a06:	4a8d      	ldr	r2, [pc, #564]	; (8001c3c <HAL_RCC_ClockConfig+0x23c>)
 8001a08:	6813      	ldr	r3, [r2, #0]
 8001a0a:	f003 030f 	and.w	r3, r3, #15
 8001a0e:	428b      	cmp	r3, r1
 8001a10:	e92d 41f0 	stmdb	sp!, {r4, r5, r6, r7, r8, lr}
 8001a14:	4604      	mov	r4, r0
 8001a16:	460d      	mov	r5, r1
 8001a18:	d20c      	bcs.n	8001a34 <HAL_RCC_ClockConfig+0x34>
 8001a1a:	6813      	ldr	r3, [r2, #0]
 8001a1c:	f023 030f 	bic.w	r3, r3, #15
 8001a20:	430b      	orrs	r3, r1
 8001a22:	6013      	str	r3, [r2, #0]
 8001a24:	6813      	ldr	r3, [r2, #0]
 8001a26:	f003 030f 	and.w	r3, r3, #15
 8001a2a:	428b      	cmp	r3, r1
 8001a2c:	d002      	beq.n	8001a34 <HAL_RCC_ClockConfig+0x34>
 8001a2e:	2001      	movs	r0, #1
 8001a30:	e8bd 81f0 	ldmia.w	sp!, {r4, r5, r6, r7, r8, pc}
 8001a34:	6823      	ldr	r3, [r4, #0]
 8001a36:	075f      	lsls	r7, r3, #29
 8001a38:	d50b      	bpl.n	8001a52 <HAL_RCC_ClockConfig+0x52>
 8001a3a:	4981      	ldr	r1, [pc, #516]	; (8001c40 <HAL_RCC_ClockConfig+0x240>)
 8001a3c:	6920      	ldr	r0, [r4, #16]
 8001a3e:	698a      	ldr	r2, [r1, #24]
 8001a40:	f002 0270 	and.w	r2, r2, #112	; 0x70
 8001a44:	4290      	cmp	r0, r2
 8001a46:	d904      	bls.n	8001a52 <HAL_RCC_ClockConfig+0x52>
 8001a48:	698a      	ldr	r2, [r1, #24]
 8001a4a:	f022 0270 	bic.w	r2, r2, #112	; 0x70
 8001a4e:	4302      	orrs	r2, r0
 8001a50:	618a      	str	r2, [r1, #24]
 8001a52:	071e      	lsls	r6, r3, #28
 8001a54:	d50b      	bpl.n	8001a6e <HAL_RCC_ClockConfig+0x6e>
 8001a56:	497a      	ldr	r1, [pc, #488]	; (8001c40 <HAL_RCC_ClockConfig+0x240>)
 8001a58:	6960      	ldr	r0, [r4, #20]
 8001a5a:	69ca      	ldr	r2, [r1, #28]
 8001a5c:	f002 0270 	and.w	r2, r2, #112	; 0x70
 8001a60:	4290      	cmp	r0, r2
 8001a62:	d904      	bls.n	8001a6e <HAL_RCC_ClockConfig+0x6e>
 8001a64:	69ca      	ldr	r2, [r1, #28]
 8001a66:	f022 0270 	bic.w	r2, r2, #112	; 0x70
 8001a6a:	4302      	orrs	r2, r0
 8001a6c:	61ca      	str	r2, [r1, #28]
 8001a6e:	06d8      	lsls	r0, r3, #27
 8001a70:	d50b      	bpl.n	8001a8a <HAL_RCC_ClockConfig+0x8a>
 8001a72:	4973      	ldr	r1, [pc, #460]	; (8001c40 <HAL_RCC_ClockConfig+0x240>)
 8001a74:	69a0      	ldr	r0, [r4, #24]
 8001a76:	69ca      	ldr	r2, [r1, #28]
 8001a78:	f402 62e0 	and.w	r2, r2, #1792	; 0x700
 8001a7c:	4290      	cmp	r0, r2
 8001a7e:	d904      	bls.n	8001a8a <HAL_RCC_ClockConfig+0x8a>
 8001a80:	69ca      	ldr	r2, [r1, #28]
 8001a82:	f422 62e0 	bic.w	r2, r2, #1792	; 0x700
 8001a86:	4302      	orrs	r2, r0
 8001a88:	61ca      	str	r2, [r1, #28]
 8001a8a:	0699      	lsls	r1, r3, #26
 8001a8c:	d50b      	bpl.n	8001aa6 <HAL_RCC_ClockConfig+0xa6>
 8001a8e:	496c      	ldr	r1, [pc, #432]	; (8001c40 <HAL_RCC_ClockConfig+0x240>)
 8001a90:	69e0      	ldr	r0, [r4, #28]
 8001a92:	6a0a      	ldr	r2, [r1, #32]
 8001a94:	f002 0270 	and.w	r2, r2, #112	; 0x70
 8001a98:	4290      	cmp	r0, r2
 8001a9a:	d904      	bls.n	8001aa6 <HAL_RCC_ClockConfig+0xa6>
 8001a9c:	6a0a      	ldr	r2, [r1, #32]
 8001a9e:	f022 0270 	bic.w	r2, r2, #112	; 0x70
 8001aa2:	4302      	orrs	r2, r0
 8001aa4:	620a      	str	r2, [r1, #32]
 8001aa6:	079a      	lsls	r2, r3, #30
 8001aa8:	f140 80ad 	bpl.w	8001c06 <HAL_RCC_ClockConfig+0x206>
 8001aac:	4864      	ldr	r0, [pc, #400]	; (8001c40 <HAL_RCC_ClockConfig+0x240>)
 8001aae:	68e1      	ldr	r1, [r4, #12]
 8001ab0:	6982      	ldr	r2, [r0, #24]
 8001ab2:	f002 020f 	and.w	r2, r2, #15
 8001ab6:	4291      	cmp	r1, r2
 8001ab8:	d904      	bls.n	8001ac4 <HAL_RCC_ClockConfig+0xc4>
 8001aba:	6982      	ldr	r2, [r0, #24]
 8001abc:	f022 020f 	bic.w	r2, r2, #15
 8001ac0:	430a      	orrs	r2, r1
 8001ac2:	6182      	str	r2, [r0, #24]
 8001ac4:	07d8      	lsls	r0, r3, #31
 8001ac6:	d531      	bpl.n	8001b2c <HAL_RCC_ClockConfig+0x12c>
 8001ac8:	4a5d      	ldr	r2, [pc, #372]	; (8001c40 <HAL_RCC_ClockConfig+0x240>)
 8001aca:	68a1      	ldr	r1, [r4, #8]
 8001acc:	6993      	ldr	r3, [r2, #24]
 8001ace:	f423 6370 	bic.w	r3, r3, #3840	; 0xf00
 8001ad2:	430b      	orrs	r3, r1
 8001ad4:	6193      	str	r3, [r2, #24]
 8001ad6:	6861      	ldr	r1, [r4, #4]
 8001ad8:	6813      	ldr	r3, [r2, #0]
 8001ada:	2902      	cmp	r1, #2
 8001adc:	f000 80a3 	beq.w	8001c26 <HAL_RCC_ClockConfig+0x226>
 8001ae0:	2903      	cmp	r1, #3
 8001ae2:	f000 809a 	beq.w	8001c1a <HAL_RCC_ClockConfig+0x21a>
 8001ae6:	2901      	cmp	r1, #1
 8001ae8:	f000 80a3 	beq.w	8001c32 <HAL_RCC_ClockConfig+0x232>
 8001aec:	0758      	lsls	r0, r3, #29
 8001aee:	d59e      	bpl.n	8001a2e <HAL_RCC_ClockConfig+0x2e>
 8001af0:	4a53      	ldr	r2, [pc, #332]	; (8001c40 <HAL_RCC_ClockConfig+0x240>)
 8001af2:	f241 3888 	movw	r8, #5000	; 0x1388
 8001af6:	6913      	ldr	r3, [r2, #16]
 8001af8:	4617      	mov	r7, r2
 8001afa:	f023 0307 	bic.w	r3, r3, #7
 8001afe:	430b      	orrs	r3, r1
 8001b00:	6113      	str	r3, [r2, #16]
 8001b02:	f7fe ff77 	bl	80009f4 <HAL_GetTick>
 8001b06:	4606      	mov	r6, r0
 8001b08:	e005      	b.n	8001b16 <HAL_RCC_ClockConfig+0x116>
 8001b0a:	f7fe ff73 	bl	80009f4 <HAL_GetTick>
 8001b0e:	1b80      	subs	r0, r0, r6
 8001b10:	4540      	cmp	r0, r8
 8001b12:	f200 808c 	bhi.w	8001c2e <HAL_RCC_ClockConfig+0x22e>
 8001b16:	693b      	ldr	r3, [r7, #16]
 8001b18:	6862      	ldr	r2, [r4, #4]
 8001b1a:	f003 0338 	and.w	r3, r3, #56	; 0x38
 8001b1e:	ebb3 0fc2 	cmp.w	r3, r2, lsl #3
 8001b22:	d1f2      	bne.n	8001b0a <HAL_RCC_ClockConfig+0x10a>
 8001b24:	6823      	ldr	r3, [r4, #0]
 8001b26:	0799      	lsls	r1, r3, #30
 8001b28:	d506      	bpl.n	8001b38 <HAL_RCC_ClockConfig+0x138>
 8001b2a:	68e1      	ldr	r1, [r4, #12]
 8001b2c:	4844      	ldr	r0, [pc, #272]	; (8001c40 <HAL_RCC_ClockConfig+0x240>)
 8001b2e:	6982      	ldr	r2, [r0, #24]
 8001b30:	f002 020f 	and.w	r2, r2, #15
 8001b34:	428a      	cmp	r2, r1
 8001b36:	d86a      	bhi.n	8001c0e <HAL_RCC_ClockConfig+0x20e>
 8001b38:	4940      	ldr	r1, [pc, #256]	; (8001c3c <HAL_RCC_ClockConfig+0x23c>)
 8001b3a:	680a      	ldr	r2, [r1, #0]
 8001b3c:	f002 020f 	and.w	r2, r2, #15
 8001b40:	42aa      	cmp	r2, r5
 8001b42:	d90a      	bls.n	8001b5a <HAL_RCC_ClockConfig+0x15a>
 8001b44:	680a      	ldr	r2, [r1, #0]
 8001b46:	f022 020f 	bic.w	r2, r2, #15
 8001b4a:	432a      	orrs	r2, r5
 8001b4c:	600a      	str	r2, [r1, #0]
 8001b4e:	680a      	ldr	r2, [r1, #0]
 8001b50:	f002 020f 	and.w	r2, r2, #15
 8001b54:	42aa      	cmp	r2, r5
 8001b56:	f47f af6a 	bne.w	8001a2e <HAL_RCC_ClockConfig+0x2e>
 8001b5a:	075a      	lsls	r2, r3, #29
 8001b5c:	d50b      	bpl.n	8001b76 <HAL_RCC_ClockConfig+0x176>
 8001b5e:	4938      	ldr	r1, [pc, #224]	; (8001c40 <HAL_RCC_ClockConfig+0x240>)
 8001b60:	6920      	ldr	r0, [r4, #16]
 8001b62:	698a      	ldr	r2, [r1, #24]
 8001b64:	f002 0270 	and.w	r2, r2, #112	; 0x70
 8001b68:	4290      	cmp	r0, r2
 8001b6a:	d204      	bcs.n	8001b76 <HAL_RCC_ClockConfig+0x176>
 8001b6c:	698a      	ldr	r2, [r1, #24]
 8001b6e:	f022 0270 	bic.w	r2, r2, #112	; 0x70
 8001b72:	4302      	orrs	r2, r0
 8001b74:	618a      	str	r2, [r1, #24]
 8001b76:	071f      	lsls	r7, r3, #28
 8001b78:	d50b      	bpl.n	8001b92 <HAL_RCC_ClockConfig+0x192>
 8001b7a:	4931      	ldr	r1, [pc, #196]	; (8001c40 <HAL_RCC_ClockConfig+0x240>)
 8001b7c:	6960      	ldr	r0, [r4, #20]
 8001b7e:	69ca      	ldr	r2, [r1, #28]
 8001b80:	f002 0270 	and.w	r2, r2, #112	; 0x70
 8001b84:	4290      	cmp	r0, r2
 8001b86:	d204      	bcs.n	8001b92 <HAL_RCC_ClockConfig+0x192>
 8001b88:	69ca      	ldr	r2, [r1, #28]
 8001b8a:	f022 0270 	bic.w	r2, r2, #112	; 0x70
 8001b8e:	4302      	orrs	r2, r0
 8001b90:	61ca      	str	r2, [r1, #28]
 8001b92:	06de      	lsls	r6, r3, #27
 8001b94:	d50b      	bpl.n	8001bae <HAL_RCC_ClockConfig+0x1ae>
 8001b96:	492a      	ldr	r1, [pc, #168]	; (8001c40 <HAL_RCC_ClockConfig+0x240>)
 8001b98:	69a0      	ldr	r0, [r4, #24]
 8001b9a:	69ca      	ldr	r2, [r1, #28]
 8001b9c:	f402 62e0 	and.w	r2, r2, #1792	; 0x700
 8001ba0:	4290      	cmp	r0, r2
 8001ba2:	d204      	bcs.n	8001bae <HAL_RCC_ClockConfig+0x1ae>
 8001ba4:	69ca      	ldr	r2, [r1, #28]
 8001ba6:	f422 62e0 	bic.w	r2, r2, #1792	; 0x700
 8001baa:	4302      	orrs	r2, r0
 8001bac:	61ca      	str	r2, [r1, #28]
 8001bae:	069d      	lsls	r5, r3, #26
 8001bb0:	d50b      	bpl.n	8001bca <HAL_RCC_ClockConfig+0x1ca>
 8001bb2:	4a23      	ldr	r2, [pc, #140]	; (8001c40 <HAL_RCC_ClockConfig+0x240>)
 8001bb4:	69e1      	ldr	r1, [r4, #28]
 8001bb6:	6a13      	ldr	r3, [r2, #32]
 8001bb8:	f003 0370 	and.w	r3, r3, #112	; 0x70
 8001bbc:	4299      	cmp	r1, r3
 8001bbe:	d204      	bcs.n	8001bca <HAL_RCC_ClockConfig+0x1ca>
 8001bc0:	6a13      	ldr	r3, [r2, #32]
 8001bc2:	f023 0370 	bic.w	r3, r3, #112	; 0x70
 8001bc6:	430b      	orrs	r3, r1
 8001bc8:	6213      	str	r3, [r2, #32]
 8001bca:	f7ff fe79 	bl	80018c0 <HAL_RCC_GetSysClockFreq>
 8001bce:	4b1c      	ldr	r3, [pc, #112]	; (8001c40 <HAL_RCC_ClockConfig+0x240>)
 8001bd0:	4602      	mov	r2, r0
 8001bd2:	481c      	ldr	r0, [pc, #112]	; (8001c44 <HAL_RCC_ClockConfig+0x244>)
 8001bd4:	6999      	ldr	r1, [r3, #24]
 8001bd6:	699b      	ldr	r3, [r3, #24]
 8001bd8:	f3c1 2103 	ubfx	r1, r1, #8, #4
 8001bdc:	4d1a      	ldr	r5, [pc, #104]	; (8001c48 <HAL_RCC_ClockConfig+0x248>)
 8001bde:	f003 030f 	and.w	r3, r3, #15
 8001be2:	4c1a      	ldr	r4, [pc, #104]	; (8001c4c <HAL_RCC_ClockConfig+0x24c>)
 8001be4:	5c41      	ldrb	r1, [r0, r1]
 8001be6:	5cc3      	ldrb	r3, [r0, r3]
 8001be8:	f001 011f 	and.w	r1, r1, #31
 8001bec:	6828      	ldr	r0, [r5, #0]
 8001bee:	f003 031f 	and.w	r3, r3, #31
 8001bf2:	4d17      	ldr	r5, [pc, #92]	; (8001c50 <HAL_RCC_ClockConfig+0x250>)
 8001bf4:	40ca      	lsrs	r2, r1
 8001bf6:	fa22 f303 	lsr.w	r3, r2, r3
 8001bfa:	602a      	str	r2, [r5, #0]
 8001bfc:	6023      	str	r3, [r4, #0]
 8001bfe:	e8bd 41f0 	ldmia.w	sp!, {r4, r5, r6, r7, r8, lr}
 8001c02:	f7fe be95 	b.w	8000930 <HAL_InitTick>
 8001c06:	07da      	lsls	r2, r3, #31
 8001c08:	f53f af5e 	bmi.w	8001ac8 <HAL_RCC_ClockConfig+0xc8>
 8001c0c:	e794      	b.n	8001b38 <HAL_RCC_ClockConfig+0x138>
 8001c0e:	6982      	ldr	r2, [r0, #24]
 8001c10:	f022 020f 	bic.w	r2, r2, #15
 8001c14:	4311      	orrs	r1, r2
 8001c16:	6181      	str	r1, [r0, #24]
 8001c18:	e78e      	b.n	8001b38 <HAL_RCC_ClockConfig+0x138>
 8001c1a:	019f      	lsls	r7, r3, #6
 8001c1c:	f53f af68 	bmi.w	8001af0 <HAL_RCC_ClockConfig+0xf0>
 8001c20:	e705      	b.n	8001a2e <HAL_RCC_ClockConfig+0x2e>
 8001c22:	2001      	movs	r0, #1
 8001c24:	4770      	bx	lr
 8001c26:	039b      	lsls	r3, r3, #14
 8001c28:	f53f af62 	bmi.w	8001af0 <HAL_RCC_ClockConfig+0xf0>
 8001c2c:	e6ff      	b.n	8001a2e <HAL_RCC_ClockConfig+0x2e>
 8001c2e:	2003      	movs	r0, #3
 8001c30:	e6fe      	b.n	8001a30 <HAL_RCC_ClockConfig+0x30>
 8001c32:	05de      	lsls	r6, r3, #23
 8001c34:	f53f af5c 	bmi.w	8001af0 <HAL_RCC_ClockConfig+0xf0>
 8001c38:	e6f9      	b.n	8001a2e <HAL_RCC_ClockConfig+0x2e>
 8001c3a:	bf00      	nop
 8001c3c:	52002000 	.word	0x52002000
 8001c40:	58024400 	.word	0x58024400
 8001c44:	08004a58 	.word	0x08004a58
 8001c48:	2400000c 	.word	0x2400000c
 8001c4c:	24000004 	.word	0x24000004
 8001c50:	24000000 	.word	0x24000000

08001c54 <HAL_RCC_GetHCLKFreq>:
 8001c54:	4a18      	ldr	r2, [pc, #96]	; (8001cb8 <HAL_RCC_GetHCLKFreq+0x64>)
 8001c56:	b538      	push	{r3, r4, r5, lr}
 8001c58:	6913      	ldr	r3, [r2, #16]
 8001c5a:	f003 0338 	and.w	r3, r3, #56	; 0x38
 8001c5e:	2b10      	cmp	r3, #16
 8001c60:	d01a      	beq.n	8001c98 <HAL_RCC_GetHCLKFreq+0x44>
 8001c62:	2b18      	cmp	r3, #24
 8001c64:	d023      	beq.n	8001cae <HAL_RCC_GetHCLKFreq+0x5a>
 8001c66:	b1cb      	cbz	r3, 8001c9c <HAL_RCC_GetHCLKFreq+0x48>
 8001c68:	4814      	ldr	r0, [pc, #80]	; (8001cbc <HAL_RCC_GetHCLKFreq+0x68>)
 8001c6a:	4b13      	ldr	r3, [pc, #76]	; (8001cb8 <HAL_RCC_GetHCLKFreq+0x64>)
 8001c6c:	4914      	ldr	r1, [pc, #80]	; (8001cc0 <HAL_RCC_GetHCLKFreq+0x6c>)
 8001c6e:	699a      	ldr	r2, [r3, #24]
 8001c70:	699b      	ldr	r3, [r3, #24]
 8001c72:	f3c2 2203 	ubfx	r2, r2, #8, #4
 8001c76:	4c13      	ldr	r4, [pc, #76]	; (8001cc4 <HAL_RCC_GetHCLKFreq+0x70>)
 8001c78:	f003 030f 	and.w	r3, r3, #15
 8001c7c:	4d12      	ldr	r5, [pc, #72]	; (8001cc8 <HAL_RCC_GetHCLKFreq+0x74>)
 8001c7e:	5c8a      	ldrb	r2, [r1, r2]
 8001c80:	5ccb      	ldrb	r3, [r1, r3]
 8001c82:	f002 021f 	and.w	r2, r2, #31
 8001c86:	f003 031f 	and.w	r3, r3, #31
 8001c8a:	fa20 f202 	lsr.w	r2, r0, r2
 8001c8e:	fa22 f003 	lsr.w	r0, r2, r3
 8001c92:	602a      	str	r2, [r5, #0]
 8001c94:	6020      	str	r0, [r4, #0]
 8001c96:	bd38      	pop	{r3, r4, r5, pc}
 8001c98:	480c      	ldr	r0, [pc, #48]	; (8001ccc <HAL_RCC_GetHCLKFreq+0x78>)
 8001c9a:	e7e6      	b.n	8001c6a <HAL_RCC_GetHCLKFreq+0x16>
 8001c9c:	6813      	ldr	r3, [r2, #0]
 8001c9e:	069b      	lsls	r3, r3, #26
 8001ca0:	d508      	bpl.n	8001cb4 <HAL_RCC_GetHCLKFreq+0x60>
 8001ca2:	6812      	ldr	r2, [r2, #0]
 8001ca4:	480a      	ldr	r0, [pc, #40]	; (8001cd0 <HAL_RCC_GetHCLKFreq+0x7c>)
 8001ca6:	f3c2 02c1 	ubfx	r2, r2, #3, #2
 8001caa:	40d0      	lsrs	r0, r2
 8001cac:	e7dd      	b.n	8001c6a <HAL_RCC_GetHCLKFreq+0x16>
 8001cae:	f7ff fa8d 	bl	80011cc <HAL_RCC_GetSysClockFreq.part.0>
 8001cb2:	e7da      	b.n	8001c6a <HAL_RCC_GetHCLKFreq+0x16>
 8001cb4:	4806      	ldr	r0, [pc, #24]	; (8001cd0 <HAL_RCC_GetHCLKFreq+0x7c>)
 8001cb6:	e7d8      	b.n	8001c6a <HAL_RCC_GetHCLKFreq+0x16>
 8001cb8:	58024400 	.word	0x58024400
 8001cbc:	003d0900 	.word	0x003d0900
 8001cc0:	08004a58 	.word	0x08004a58
 8001cc4:	24000004 	.word	0x24000004
 8001cc8:	24000000 	.word	0x24000000
 8001ccc:	017d7840 	.word	0x017d7840
 8001cd0:	03d09000 	.word	0x03d09000

08001cd4 <RCCEx_PLL2_Config>:
 8001cd4:	4a3b      	ldr	r2, [pc, #236]	; (8001dc4 <RCCEx_PLL2_Config+0xf0>)
 8001cd6:	b5f8      	push	{r3, r4, r5, r6, r7, lr}
 8001cd8:	6a93      	ldr	r3, [r2, #40]	; 0x28
 8001cda:	f003 0303 	and.w	r3, r3, #3
 8001cde:	2b03      	cmp	r3, #3
 8001ce0:	d069      	beq.n	8001db6 <RCCEx_PLL2_Config+0xe2>
 8001ce2:	6813      	ldr	r3, [r2, #0]
 8001ce4:	4606      	mov	r6, r0
 8001ce6:	460f      	mov	r7, r1
 8001ce8:	4614      	mov	r4, r2
 8001cea:	f023 6380 	bic.w	r3, r3, #67108864	; 0x4000000
 8001cee:	6013      	str	r3, [r2, #0]
 8001cf0:	f7fe fe80 	bl	80009f4 <HAL_GetTick>
 8001cf4:	4605      	mov	r5, r0
 8001cf6:	e004      	b.n	8001d02 <RCCEx_PLL2_Config+0x2e>
 8001cf8:	f7fe fe7c 	bl	80009f4 <HAL_GetTick>
 8001cfc:	1b43      	subs	r3, r0, r5
 8001cfe:	2b02      	cmp	r3, #2
 8001d00:	d857      	bhi.n	8001db2 <RCCEx_PLL2_Config+0xde>
 8001d02:	6823      	ldr	r3, [r4, #0]
 8001d04:	011a      	lsls	r2, r3, #4
 8001d06:	d4f7      	bmi.n	8001cf8 <RCCEx_PLL2_Config+0x24>
 8001d08:	6aa3      	ldr	r3, [r4, #40]	; 0x28
 8001d0a:	6832      	ldr	r2, [r6, #0]
 8001d0c:	f423 337c 	bic.w	r3, r3, #258048	; 0x3f000
 8001d10:	492d      	ldr	r1, [pc, #180]	; (8001dc8 <RCCEx_PLL2_Config+0xf4>)
 8001d12:	ea43 3302 	orr.w	r3, r3, r2, lsl #12
 8001d16:	62a3      	str	r3, [r4, #40]	; 0x28
 8001d18:	6875      	ldr	r5, [r6, #4]
 8001d1a:	e9d6 3202 	ldrd	r3, r2, [r6, #8]
 8001d1e:	3d01      	subs	r5, #1
 8001d20:	1e50      	subs	r0, r2, #1
 8001d22:	3b01      	subs	r3, #1
 8001d24:	6932      	ldr	r2, [r6, #16]
 8001d26:	f3c5 0508 	ubfx	r5, r5, #0, #9
 8001d2a:	025b      	lsls	r3, r3, #9
 8001d2c:	0400      	lsls	r0, r0, #16
 8001d2e:	3a01      	subs	r2, #1
 8001d30:	b29b      	uxth	r3, r3
 8001d32:	f400 00fe 	and.w	r0, r0, #8323072	; 0x7f0000
 8001d36:	0612      	lsls	r2, r2, #24
 8001d38:	4303      	orrs	r3, r0
 8001d3a:	f002 42fe 	and.w	r2, r2, #2130706432	; 0x7f000000
 8001d3e:	432b      	orrs	r3, r5
 8001d40:	4313      	orrs	r3, r2
 8001d42:	63a3      	str	r3, [r4, #56]	; 0x38
 8001d44:	6ae3      	ldr	r3, [r4, #44]	; 0x2c
 8001d46:	6972      	ldr	r2, [r6, #20]
 8001d48:	f023 03c0 	bic.w	r3, r3, #192	; 0xc0
 8001d4c:	4313      	orrs	r3, r2
 8001d4e:	62e3      	str	r3, [r4, #44]	; 0x2c
 8001d50:	6ae3      	ldr	r3, [r4, #44]	; 0x2c
 8001d52:	69b2      	ldr	r2, [r6, #24]
 8001d54:	f023 0320 	bic.w	r3, r3, #32
 8001d58:	4313      	orrs	r3, r2
 8001d5a:	62e3      	str	r3, [r4, #44]	; 0x2c
 8001d5c:	6ae3      	ldr	r3, [r4, #44]	; 0x2c
 8001d5e:	f023 0310 	bic.w	r3, r3, #16
 8001d62:	62e3      	str	r3, [r4, #44]	; 0x2c
 8001d64:	6be2      	ldr	r2, [r4, #60]	; 0x3c
 8001d66:	69f3      	ldr	r3, [r6, #28]
 8001d68:	4011      	ands	r1, r2
 8001d6a:	ea41 01c3 	orr.w	r1, r1, r3, lsl #3
 8001d6e:	63e1      	str	r1, [r4, #60]	; 0x3c
 8001d70:	6ae3      	ldr	r3, [r4, #44]	; 0x2c
 8001d72:	f043 0310 	orr.w	r3, r3, #16
 8001d76:	62e3      	str	r3, [r4, #44]	; 0x2c
 8001d78:	6ae3      	ldr	r3, [r4, #44]	; 0x2c
 8001d7a:	b1f7      	cbz	r7, 8001dba <RCCEx_PLL2_Config+0xe6>
 8001d7c:	2f01      	cmp	r7, #1
 8001d7e:	bf0c      	ite	eq
 8001d80:	f443 1380 	orreq.w	r3, r3, #1048576	; 0x100000
 8001d84:	f443 1300 	orrne.w	r3, r3, #2097152	; 0x200000
 8001d88:	62e3      	str	r3, [r4, #44]	; 0x2c
 8001d8a:	4b0e      	ldr	r3, [pc, #56]	; (8001dc4 <RCCEx_PLL2_Config+0xf0>)
 8001d8c:	681a      	ldr	r2, [r3, #0]
 8001d8e:	461d      	mov	r5, r3
 8001d90:	f042 6280 	orr.w	r2, r2, #67108864	; 0x4000000
 8001d94:	601a      	str	r2, [r3, #0]
 8001d96:	f7fe fe2d 	bl	80009f4 <HAL_GetTick>
 8001d9a:	4604      	mov	r4, r0
 8001d9c:	e004      	b.n	8001da8 <RCCEx_PLL2_Config+0xd4>
 8001d9e:	f7fe fe29 	bl	80009f4 <HAL_GetTick>
 8001da2:	1b00      	subs	r0, r0, r4
 8001da4:	2802      	cmp	r0, #2
 8001da6:	d804      	bhi.n	8001db2 <RCCEx_PLL2_Config+0xde>
 8001da8:	682b      	ldr	r3, [r5, #0]
 8001daa:	011b      	lsls	r3, r3, #4
 8001dac:	d5f7      	bpl.n	8001d9e <RCCEx_PLL2_Config+0xca>
 8001dae:	2000      	movs	r0, #0
 8001db0:	bdf8      	pop	{r3, r4, r5, r6, r7, pc}
 8001db2:	2003      	movs	r0, #3
 8001db4:	bdf8      	pop	{r3, r4, r5, r6, r7, pc}
 8001db6:	2001      	movs	r0, #1
 8001db8:	bdf8      	pop	{r3, r4, r5, r6, r7, pc}
 8001dba:	f443 2300 	orr.w	r3, r3, #524288	; 0x80000
 8001dbe:	62e3      	str	r3, [r4, #44]	; 0x2c
 8001dc0:	e7e3      	b.n	8001d8a <RCCEx_PLL2_Config+0xb6>
 8001dc2:	bf00      	nop
 8001dc4:	58024400 	.word	0x58024400
 8001dc8:	ffff0007 	.word	0xffff0007

08001dcc <RCCEx_PLL3_Config>:
 8001dcc:	4a3b      	ldr	r2, [pc, #236]	; (8001ebc <RCCEx_PLL3_Config+0xf0>)
 8001dce:	b5f8      	push	{r3, r4, r5, r6, r7, lr}
 8001dd0:	6a93      	ldr	r3, [r2, #40]	; 0x28
 8001dd2:	f003 0303 	and.w	r3, r3, #3
 8001dd6:	2b03      	cmp	r3, #3
 8001dd8:	d069      	beq.n	8001eae <RCCEx_PLL3_Config+0xe2>
 8001dda:	6813      	ldr	r3, [r2, #0]
 8001ddc:	4606      	mov	r6, r0
 8001dde:	460f      	mov	r7, r1
 8001de0:	4614      	mov	r4, r2
 8001de2:	f023 5380 	bic.w	r3, r3, #268435456	; 0x10000000
 8001de6:	6013      	str	r3, [r2, #0]
 8001de8:	f7fe fe04 	bl	80009f4 <HAL_GetTick>
 8001dec:	4605      	mov	r5, r0
 8001dee:	e004      	b.n	8001dfa <RCCEx_PLL3_Config+0x2e>
 8001df0:	f7fe fe00 	bl	80009f4 <HAL_GetTick>
 8001df4:	1b43      	subs	r3, r0, r5
 8001df6:	2b02      	cmp	r3, #2
 8001df8:	d857      	bhi.n	8001eaa <RCCEx_PLL3_Config+0xde>
 8001dfa:	6823      	ldr	r3, [r4, #0]
 8001dfc:	009a      	lsls	r2, r3, #2
 8001dfe:	d4f7      	bmi.n	8001df0 <RCCEx_PLL3_Config+0x24>
 8001e00:	6aa3      	ldr	r3, [r4, #40]	; 0x28
 8001e02:	6832      	ldr	r2, [r6, #0]
 8001e04:	f023 737c 	bic.w	r3, r3, #66060288	; 0x3f00000
 8001e08:	492d      	ldr	r1, [pc, #180]	; (8001ec0 <RCCEx_PLL3_Config+0xf4>)
 8001e0a:	ea43 5302 	orr.w	r3, r3, r2, lsl #20
 8001e0e:	62a3      	str	r3, [r4, #40]	; 0x28
 8001e10:	6875      	ldr	r5, [r6, #4]
 8001e12:	e9d6 3202 	ldrd	r3, r2, [r6, #8]
 8001e16:	3d01      	subs	r5, #1
 8001e18:	1e50      	subs	r0, r2, #1
 8001e1a:	3b01      	subs	r3, #1
 8001e1c:	6932      	ldr	r2, [r6, #16]
 8001e1e:	f3c5 0508 	ubfx	r5, r5, #0, #9
 8001e22:	025b      	lsls	r3, r3, #9
 8001e24:	0400      	lsls	r0, r0, #16
 8001e26:	3a01      	subs	r2, #1
 8001e28:	b29b      	uxth	r3, r3
 8001e2a:	f400 00fe 	and.w	r0, r0, #8323072	; 0x7f0000
 8001e2e:	0612      	lsls	r2, r2, #24
 8001e30:	4303      	orrs	r3, r0
 8001e32:	f002 42fe 	and.w	r2, r2, #2130706432	; 0x7f000000
 8001e36:	432b      	orrs	r3, r5
 8001e38:	4313      	orrs	r3, r2
 8001e3a:	6423      	str	r3, [r4, #64]	; 0x40
 8001e3c:	6ae3      	ldr	r3, [r4, #44]	; 0x2c
 8001e3e:	6972      	ldr	r2, [r6, #20]
 8001e40:	f423 6340 	bic.w	r3, r3, #3072	; 0xc00
 8001e44:	4313      	orrs	r3, r2
 8001e46:	62e3      	str	r3, [r4, #44]	; 0x2c
 8001e48:	6ae3      	ldr	r3, [r4, #44]	; 0x2c
 8001e4a:	69b2      	ldr	r2, [r6, #24]
 8001e4c:	f423 7300 	bic.w	r3, r3, #512	; 0x200
 8001e50:	4313      	orrs	r3, r2
 8001e52:	62e3      	str	r3, [r4, #44]	; 0x2c
 8001e54:	6ae3      	ldr	r3, [r4, #44]	; 0x2c
 8001e56:	f423 7380 	bic.w	r3, r3, #256	; 0x100
 8001e5a:	62e3      	str	r3, [r4, #44]	; 0x2c
 8001e5c:	6c62      	ldr	r2, [r4, #68]	; 0x44
 8001e5e:	69f3      	ldr	r3, [r6, #28]
 8001e60:	4011      	ands	r1, r2
 8001e62:	ea41 01c3 	orr.w	r1, r1, r3, lsl #3
 8001e66:	6461      	str	r1, [r4, #68]	; 0x44
 8001e68:	6ae3      	ldr	r3, [r4, #44]	; 0x2c
 8001e6a:	f443 7380 	orr.w	r3, r3, #256	; 0x100
 8001e6e:	62e3      	str	r3, [r4, #44]	; 0x2c
 8001e70:	6ae3      	ldr	r3, [r4, #44]	; 0x2c
 8001e72:	b1f7      	cbz	r7, 8001eb2 <RCCEx_PLL3_Config+0xe6>
 8001e74:	2f01      	cmp	r7, #1
 8001e76:	bf0c      	ite	eq
 8001e78:	f443 0300 	orreq.w	r3, r3, #8388608	; 0x800000
 8001e7c:	f043 7380 	orrne.w	r3, r3, #16777216	; 0x1000000
 8001e80:	62e3      	str	r3, [r4, #44]	; 0x2c
 8001e82:	4b0e      	ldr	r3, [pc, #56]	; (8001ebc <RCCEx_PLL3_Config+0xf0>)
 8001e84:	681a      	ldr	r2, [r3, #0]
 8001e86:	461d      	mov	r5, r3
 8001e88:	f042 5280 	orr.w	r2, r2, #268435456	; 0x10000000
 8001e8c:	601a      	str	r2, [r3, #0]
 8001e8e:	f7fe fdb1 	bl	80009f4 <HAL_GetTick>
 8001e92:	4604      	mov	r4, r0
 8001e94:	e004      	b.n	8001ea0 <RCCEx_PLL3_Config+0xd4>
 8001e96:	f7fe fdad 	bl	80009f4 <HAL_GetTick>
 8001e9a:	1b00      	subs	r0, r0, r4
 8001e9c:	2802      	cmp	r0, #2
 8001e9e:	d804      	bhi.n	8001eaa <RCCEx_PLL3_Config+0xde>
 8001ea0:	682b      	ldr	r3, [r5, #0]
 8001ea2:	009b      	lsls	r3, r3, #2
 8001ea4:	d5f7      	bpl.n	8001e96 <RCCEx_PLL3_Config+0xca>
 8001ea6:	2000      	movs	r0, #0
 8001ea8:	bdf8      	pop	{r3, r4, r5, r6, r7, pc}
 8001eaa:	2003      	movs	r0, #3
 8001eac:	bdf8      	pop	{r3, r4, r5, r6, r7, pc}
 8001eae:	2001      	movs	r0, #1
 8001eb0:	bdf8      	pop	{r3, r4, r5, r6, r7, pc}
 8001eb2:	f443 0380 	orr.w	r3, r3, #4194304	; 0x400000
 8001eb6:	62e3      	str	r3, [r4, #44]	; 0x2c
 8001eb8:	e7e3      	b.n	8001e82 <RCCEx_PLL3_Config+0xb6>
 8001eba:	bf00      	nop
 8001ebc:	58024400 	.word	0x58024400
 8001ec0:	ffff0007 	.word	0xffff0007

08001ec4 <HAL_RCCEx_PeriphCLKConfig>:
 8001ec4:	e92d 43f8 	stmdb	sp!, {r3, r4, r5, r6, r7, r8, r9, lr}
 8001ec8:	6803      	ldr	r3, [r0, #0]
 8001eca:	4604      	mov	r4, r0
 8001ecc:	f013 6600 	ands.w	r6, r3, #134217728	; 0x8000000
 8001ed0:	d01c      	beq.n	8001f0c <HAL_RCCEx_PeriphCLKConfig+0x48>
 8001ed2:	6e42      	ldr	r2, [r0, #100]	; 0x64
 8001ed4:	f5b2 1f00 	cmp.w	r2, #2097152	; 0x200000
 8001ed8:	f000 84ba 	beq.w	8002850 <HAL_RCCEx_PeriphCLKConfig+0x98c>
 8001edc:	d823      	bhi.n	8001f26 <HAL_RCCEx_PeriphCLKConfig+0x62>
 8001ede:	2a00      	cmp	r2, #0
 8001ee0:	f000 83dc 	beq.w	800269c <HAL_RCCEx_PeriphCLKConfig+0x7d8>
 8001ee4:	f5b2 1f80 	cmp.w	r2, #1048576	; 0x100000
 8001ee8:	d120      	bne.n	8001f2c <HAL_RCCEx_PeriphCLKConfig+0x68>
 8001eea:	2102      	movs	r1, #2
 8001eec:	3004      	adds	r0, #4
 8001eee:	f7ff fef1 	bl	8001cd4 <RCCEx_PLL2_Config>
 8001ef2:	4606      	mov	r6, r0
 8001ef4:	2e00      	cmp	r6, #0
 8001ef6:	f040 849f 	bne.w	8002838 <HAL_RCCEx_PeriphCLKConfig+0x974>
 8001efa:	6e62      	ldr	r2, [r4, #100]	; 0x64
 8001efc:	6823      	ldr	r3, [r4, #0]
 8001efe:	48ab      	ldr	r0, [pc, #684]	; (80021ac <HAL_RCCEx_PeriphCLKConfig+0x2e8>)
 8001f00:	2600      	movs	r6, #0
 8001f02:	6d01      	ldr	r1, [r0, #80]	; 0x50
 8001f04:	f421 1140 	bic.w	r1, r1, #3145728	; 0x300000
 8001f08:	430a      	orrs	r2, r1
 8001f0a:	6502      	str	r2, [r0, #80]	; 0x50
 8001f0c:	05dd      	lsls	r5, r3, #23
 8001f0e:	d511      	bpl.n	8001f34 <HAL_RCCEx_PeriphCLKConfig+0x70>
 8001f10:	6d62      	ldr	r2, [r4, #84]	; 0x54
 8001f12:	2a04      	cmp	r2, #4
 8001f14:	f200 851c 	bhi.w	8002950 <HAL_RCCEx_PeriphCLKConfig+0xa8c>
 8001f18:	e8df f012 	tbh	[pc, r2, lsl #1]
 8001f1c:	0476046f 	.word	0x0476046f
 8001f20:	02d40486 	.word	0x02d40486
 8001f24:	02d4      	.short	0x02d4
 8001f26:	f5b2 1f40 	cmp.w	r2, #3145728	; 0x300000
 8001f2a:	d0e8      	beq.n	8001efe <HAL_RCCEx_PeriphCLKConfig+0x3a>
 8001f2c:	05dd      	lsls	r5, r3, #23
 8001f2e:	f04f 0601 	mov.w	r6, #1
 8001f32:	d4ed      	bmi.n	8001f10 <HAL_RCCEx_PeriphCLKConfig+0x4c>
 8001f34:	4635      	mov	r5, r6
 8001f36:	0598      	lsls	r0, r3, #22
 8001f38:	d51b      	bpl.n	8001f72 <HAL_RCCEx_PeriphCLKConfig+0xae>
 8001f3a:	6da2      	ldr	r2, [r4, #88]	; 0x58
 8001f3c:	2a80      	cmp	r2, #128	; 0x80
 8001f3e:	f000 8453 	beq.w	80027e8 <HAL_RCCEx_PeriphCLKConfig+0x924>
 8001f42:	f200 80ec 	bhi.w	800211e <HAL_RCCEx_PeriphCLKConfig+0x25a>
 8001f46:	2a00      	cmp	r2, #0
 8001f48:	f000 83a2 	beq.w	8002690 <HAL_RCCEx_PeriphCLKConfig+0x7cc>
 8001f4c:	2a40      	cmp	r2, #64	; 0x40
 8001f4e:	f040 80ed 	bne.w	800212c <HAL_RCCEx_PeriphCLKConfig+0x268>
 8001f52:	2100      	movs	r1, #0
 8001f54:	1d20      	adds	r0, r4, #4
 8001f56:	f7ff febd 	bl	8001cd4 <RCCEx_PLL2_Config>
 8001f5a:	6823      	ldr	r3, [r4, #0]
 8001f5c:	4605      	mov	r5, r0
 8001f5e:	2d00      	cmp	r5, #0
 8001f60:	f040 8386 	bne.w	8002670 <HAL_RCCEx_PeriphCLKConfig+0x7ac>
 8001f64:	4991      	ldr	r1, [pc, #580]	; (80021ac <HAL_RCCEx_PeriphCLKConfig+0x2e8>)
 8001f66:	6da0      	ldr	r0, [r4, #88]	; 0x58
 8001f68:	6d0a      	ldr	r2, [r1, #80]	; 0x50
 8001f6a:	f422 72e0 	bic.w	r2, r2, #448	; 0x1c0
 8001f6e:	4302      	orrs	r2, r0
 8001f70:	650a      	str	r2, [r1, #80]	; 0x50
 8001f72:	0559      	lsls	r1, r3, #21
 8001f74:	d51f      	bpl.n	8001fb6 <HAL_RCCEx_PeriphCLKConfig+0xf2>
 8001f76:	f8d4 20a4 	ldr.w	r2, [r4, #164]	; 0xa4
 8001f7a:	f5b2 0f80 	cmp.w	r2, #4194304	; 0x400000
 8001f7e:	f000 844a 	beq.w	8002816 <HAL_RCCEx_PeriphCLKConfig+0x952>
 8001f82:	f200 80d6 	bhi.w	8002132 <HAL_RCCEx_PeriphCLKConfig+0x26e>
 8001f86:	2a00      	cmp	r2, #0
 8001f88:	f000 837c 	beq.w	8002684 <HAL_RCCEx_PeriphCLKConfig+0x7c0>
 8001f8c:	f5b2 1f00 	cmp.w	r2, #2097152	; 0x200000
 8001f90:	f040 80d7 	bne.w	8002142 <HAL_RCCEx_PeriphCLKConfig+0x27e>
 8001f94:	2100      	movs	r1, #0
 8001f96:	1d20      	adds	r0, r4, #4
 8001f98:	f7ff fe9c 	bl	8001cd4 <RCCEx_PLL2_Config>
 8001f9c:	6823      	ldr	r3, [r4, #0]
 8001f9e:	4605      	mov	r5, r0
 8001fa0:	2d00      	cmp	r5, #0
 8001fa2:	f040 8367 	bne.w	8002674 <HAL_RCCEx_PeriphCLKConfig+0x7b0>
 8001fa6:	4981      	ldr	r1, [pc, #516]	; (80021ac <HAL_RCCEx_PeriphCLKConfig+0x2e8>)
 8001fa8:	f8d4 00a4 	ldr.w	r0, [r4, #164]	; 0xa4
 8001fac:	6d8a      	ldr	r2, [r1, #88]	; 0x58
 8001fae:	f422 0260 	bic.w	r2, r2, #14680064	; 0xe00000
 8001fb2:	4302      	orrs	r2, r0
 8001fb4:	658a      	str	r2, [r1, #88]	; 0x58
 8001fb6:	051a      	lsls	r2, r3, #20
 8001fb8:	d51f      	bpl.n	8001ffa <HAL_RCCEx_PeriphCLKConfig+0x136>
 8001fba:	f8d4 20a8 	ldr.w	r2, [r4, #168]	; 0xa8
 8001fbe:	f1b2 7f00 	cmp.w	r2, #33554432	; 0x2000000
 8001fc2:	f000 843c 	beq.w	800283e <HAL_RCCEx_PeriphCLKConfig+0x97a>
 8001fc6:	f200 80bf 	bhi.w	8002148 <HAL_RCCEx_PeriphCLKConfig+0x284>
 8001fca:	2a00      	cmp	r2, #0
 8001fcc:	f000 836c 	beq.w	80026a8 <HAL_RCCEx_PeriphCLKConfig+0x7e4>
 8001fd0:	f1b2 7f80 	cmp.w	r2, #16777216	; 0x1000000
 8001fd4:	f040 80c0 	bne.w	8002158 <HAL_RCCEx_PeriphCLKConfig+0x294>
 8001fd8:	2100      	movs	r1, #0
 8001fda:	1d20      	adds	r0, r4, #4
 8001fdc:	f7ff fe7a 	bl	8001cd4 <RCCEx_PLL2_Config>
 8001fe0:	6823      	ldr	r3, [r4, #0]
 8001fe2:	4605      	mov	r5, r0
 8001fe4:	2d00      	cmp	r5, #0
 8001fe6:	f040 833f 	bne.w	8002668 <HAL_RCCEx_PeriphCLKConfig+0x7a4>
 8001fea:	4970      	ldr	r1, [pc, #448]	; (80021ac <HAL_RCCEx_PeriphCLKConfig+0x2e8>)
 8001fec:	f8d4 00a8 	ldr.w	r0, [r4, #168]	; 0xa8
 8001ff0:	6d8a      	ldr	r2, [r1, #88]	; 0x58
 8001ff2:	f022 62e0 	bic.w	r2, r2, #117440512	; 0x7000000
 8001ff6:	4302      	orrs	r2, r0
 8001ff8:	658a      	str	r2, [r1, #88]	; 0x58
 8001ffa:	019f      	lsls	r7, r3, #6
 8001ffc:	d518      	bpl.n	8002030 <HAL_RCCEx_PeriphCLKConfig+0x16c>
 8001ffe:	6ca2      	ldr	r2, [r4, #72]	; 0x48
 8002000:	2a20      	cmp	r2, #32
 8002002:	f000 8392 	beq.w	800272a <HAL_RCCEx_PeriphCLKConfig+0x866>
 8002006:	f200 80aa 	bhi.w	800215e <HAL_RCCEx_PeriphCLKConfig+0x29a>
 800200a:	b13a      	cbz	r2, 800201c <HAL_RCCEx_PeriphCLKConfig+0x158>
 800200c:	2a10      	cmp	r2, #16
 800200e:	f040 80a9 	bne.w	8002164 <HAL_RCCEx_PeriphCLKConfig+0x2a0>
 8002012:	4966      	ldr	r1, [pc, #408]	; (80021ac <HAL_RCCEx_PeriphCLKConfig+0x2e8>)
 8002014:	6aca      	ldr	r2, [r1, #44]	; 0x2c
 8002016:	f442 3200 	orr.w	r2, r2, #131072	; 0x20000
 800201a:	62ca      	str	r2, [r1, #44]	; 0x2c
 800201c:	2d00      	cmp	r5, #0
 800201e:	f040 8366 	bne.w	80026ee <HAL_RCCEx_PeriphCLKConfig+0x82a>
 8002022:	4962      	ldr	r1, [pc, #392]	; (80021ac <HAL_RCCEx_PeriphCLKConfig+0x2e8>)
 8002024:	6ca0      	ldr	r0, [r4, #72]	; 0x48
 8002026:	6cca      	ldr	r2, [r1, #76]	; 0x4c
 8002028:	f022 0230 	bic.w	r2, r2, #48	; 0x30
 800202c:	4302      	orrs	r2, r0
 800202e:	64ca      	str	r2, [r1, #76]	; 0x4c
 8002030:	04d8      	lsls	r0, r3, #19
 8002032:	d51d      	bpl.n	8002070 <HAL_RCCEx_PeriphCLKConfig+0x1ac>
 8002034:	6de2      	ldr	r2, [r4, #92]	; 0x5c
 8002036:	f5b2 5f00 	cmp.w	r2, #8192	; 0x2000
 800203a:	f000 83cd 	beq.w	80027d8 <HAL_RCCEx_PeriphCLKConfig+0x914>
 800203e:	f200 8094 	bhi.w	800216a <HAL_RCCEx_PeriphCLKConfig+0x2a6>
 8002042:	2a00      	cmp	r2, #0
 8002044:	f000 8318 	beq.w	8002678 <HAL_RCCEx_PeriphCLKConfig+0x7b4>
 8002048:	f5b2 5f80 	cmp.w	r2, #4096	; 0x1000
 800204c:	f040 8095 	bne.w	800217a <HAL_RCCEx_PeriphCLKConfig+0x2b6>
 8002050:	2100      	movs	r1, #0
 8002052:	1d20      	adds	r0, r4, #4
 8002054:	f7ff fe3e 	bl	8001cd4 <RCCEx_PLL2_Config>
 8002058:	6823      	ldr	r3, [r4, #0]
 800205a:	4605      	mov	r5, r0
 800205c:	2d00      	cmp	r5, #0
 800205e:	f040 8305 	bne.w	800266c <HAL_RCCEx_PeriphCLKConfig+0x7a8>
 8002062:	4952      	ldr	r1, [pc, #328]	; (80021ac <HAL_RCCEx_PeriphCLKConfig+0x2e8>)
 8002064:	6de0      	ldr	r0, [r4, #92]	; 0x5c
 8002066:	6d0a      	ldr	r2, [r1, #80]	; 0x50
 8002068:	f422 42e0 	bic.w	r2, r2, #28672	; 0x7000
 800206c:	4302      	orrs	r2, r0
 800206e:	650a      	str	r2, [r1, #80]	; 0x50
 8002070:	0499      	lsls	r1, r3, #18
 8002072:	d51a      	bpl.n	80020aa <HAL_RCCEx_PeriphCLKConfig+0x1e6>
 8002074:	6e22      	ldr	r2, [r4, #96]	; 0x60
 8002076:	f5b2 3f00 	cmp.w	r2, #131072	; 0x20000
 800207a:	f000 8398 	beq.w	80027ae <HAL_RCCEx_PeriphCLKConfig+0x8ea>
 800207e:	d87f      	bhi.n	8002180 <HAL_RCCEx_PeriphCLKConfig+0x2bc>
 8002080:	b14a      	cbz	r2, 8002096 <HAL_RCCEx_PeriphCLKConfig+0x1d2>
 8002082:	f5b2 3f80 	cmp.w	r2, #65536	; 0x10000
 8002086:	f040 8083 	bne.w	8002190 <HAL_RCCEx_PeriphCLKConfig+0x2cc>
 800208a:	2101      	movs	r1, #1
 800208c:	1d20      	adds	r0, r4, #4
 800208e:	f7ff fe21 	bl	8001cd4 <RCCEx_PLL2_Config>
 8002092:	6823      	ldr	r3, [r4, #0]
 8002094:	4605      	mov	r5, r0
 8002096:	2d00      	cmp	r5, #0
 8002098:	f040 832b 	bne.w	80026f2 <HAL_RCCEx_PeriphCLKConfig+0x82e>
 800209c:	4943      	ldr	r1, [pc, #268]	; (80021ac <HAL_RCCEx_PeriphCLKConfig+0x2e8>)
 800209e:	6e20      	ldr	r0, [r4, #96]	; 0x60
 80020a0:	6d0a      	ldr	r2, [r1, #80]	; 0x50
 80020a2:	f422 22e0 	bic.w	r2, r2, #458752	; 0x70000
 80020a6:	4302      	orrs	r2, r0
 80020a8:	650a      	str	r2, [r1, #80]	; 0x50
 80020aa:	045a      	lsls	r2, r3, #17
 80020ac:	d51b      	bpl.n	80020e6 <HAL_RCCEx_PeriphCLKConfig+0x222>
 80020ae:	f8d4 20ac 	ldr.w	r2, [r4, #172]	; 0xac
 80020b2:	f1b2 5f00 	cmp.w	r2, #536870912	; 0x20000000
 80020b6:	f000 834a 	beq.w	800274e <HAL_RCCEx_PeriphCLKConfig+0x88a>
 80020ba:	d86c      	bhi.n	8002196 <HAL_RCCEx_PeriphCLKConfig+0x2d2>
 80020bc:	b142      	cbz	r2, 80020d0 <HAL_RCCEx_PeriphCLKConfig+0x20c>
 80020be:	f1b2 5f80 	cmp.w	r2, #268435456	; 0x10000000
 80020c2:	d170      	bne.n	80021a6 <HAL_RCCEx_PeriphCLKConfig+0x2e2>
 80020c4:	2101      	movs	r1, #1
 80020c6:	1d20      	adds	r0, r4, #4
 80020c8:	f7ff fe04 	bl	8001cd4 <RCCEx_PLL2_Config>
 80020cc:	6823      	ldr	r3, [r4, #0]
 80020ce:	4605      	mov	r5, r0
 80020d0:	2d00      	cmp	r5, #0
 80020d2:	f040 8302 	bne.w	80026da <HAL_RCCEx_PeriphCLKConfig+0x816>
 80020d6:	4935      	ldr	r1, [pc, #212]	; (80021ac <HAL_RCCEx_PeriphCLKConfig+0x2e8>)
 80020d8:	f8d4 00ac 	ldr.w	r0, [r4, #172]	; 0xac
 80020dc:	6d8a      	ldr	r2, [r1, #88]	; 0x58
 80020de:	f022 42e0 	bic.w	r2, r2, #1879048192	; 0x70000000
 80020e2:	4302      	orrs	r2, r0
 80020e4:	658a      	str	r2, [r1, #88]	; 0x58
 80020e6:	041f      	lsls	r7, r3, #16
 80020e8:	d50d      	bpl.n	8002106 <HAL_RCCEx_PeriphCLKConfig+0x242>
 80020ea:	6ee2      	ldr	r2, [r4, #108]	; 0x6c
 80020ec:	f1b2 5f80 	cmp.w	r2, #268435456	; 0x10000000
 80020f0:	f000 834b 	beq.w	800278a <HAL_RCCEx_PeriphCLKConfig+0x8c6>
 80020f4:	f1b2 5f00 	cmp.w	r2, #536870912	; 0x20000000
 80020f8:	f000 81f0 	beq.w	80024dc <HAL_RCCEx_PeriphCLKConfig+0x618>
 80020fc:	2a00      	cmp	r2, #0
 80020fe:	f000 81f3 	beq.w	80024e8 <HAL_RCCEx_PeriphCLKConfig+0x624>
 8002102:	2601      	movs	r6, #1
 8002104:	4635      	mov	r5, r6
 8002106:	01d8      	lsls	r0, r3, #7
 8002108:	d55c      	bpl.n	80021c4 <HAL_RCCEx_PeriphCLKConfig+0x300>
 800210a:	6c62      	ldr	r2, [r4, #68]	; 0x44
 800210c:	2a03      	cmp	r2, #3
 800210e:	f200 8425 	bhi.w	800295c <HAL_RCCEx_PeriphCLKConfig+0xa98>
 8002112:	e8df f012 	tbh	[pc, r2, lsl #1]
 8002116:	0053      	.short	0x0053
 8002118:	004d0313 	.word	0x004d0313
 800211c:	0053      	.short	0x0053
 800211e:	2ac0      	cmp	r2, #192	; 0xc0
 8002120:	f43f af1d 	beq.w	8001f5e <HAL_RCCEx_PeriphCLKConfig+0x9a>
 8002124:	f5b2 7f80 	cmp.w	r2, #256	; 0x100
 8002128:	f43f af19 	beq.w	8001f5e <HAL_RCCEx_PeriphCLKConfig+0x9a>
 800212c:	2601      	movs	r6, #1
 800212e:	4635      	mov	r5, r6
 8002130:	e71f      	b.n	8001f72 <HAL_RCCEx_PeriphCLKConfig+0xae>
 8002132:	f5b2 0fc0 	cmp.w	r2, #6291456	; 0x600000
 8002136:	f43f af33 	beq.w	8001fa0 <HAL_RCCEx_PeriphCLKConfig+0xdc>
 800213a:	f5b2 0f00 	cmp.w	r2, #8388608	; 0x800000
 800213e:	f43f af2f 	beq.w	8001fa0 <HAL_RCCEx_PeriphCLKConfig+0xdc>
 8002142:	2601      	movs	r6, #1
 8002144:	4635      	mov	r5, r6
 8002146:	e736      	b.n	8001fb6 <HAL_RCCEx_PeriphCLKConfig+0xf2>
 8002148:	f1b2 7f40 	cmp.w	r2, #50331648	; 0x3000000
 800214c:	f43f af4a 	beq.w	8001fe4 <HAL_RCCEx_PeriphCLKConfig+0x120>
 8002150:	f1b2 6f80 	cmp.w	r2, #67108864	; 0x4000000
 8002154:	f43f af46 	beq.w	8001fe4 <HAL_RCCEx_PeriphCLKConfig+0x120>
 8002158:	2601      	movs	r6, #1
 800215a:	4635      	mov	r5, r6
 800215c:	e74d      	b.n	8001ffa <HAL_RCCEx_PeriphCLKConfig+0x136>
 800215e:	2a30      	cmp	r2, #48	; 0x30
 8002160:	f43f af5c 	beq.w	800201c <HAL_RCCEx_PeriphCLKConfig+0x158>
 8002164:	2601      	movs	r6, #1
 8002166:	4635      	mov	r5, r6
 8002168:	e762      	b.n	8002030 <HAL_RCCEx_PeriphCLKConfig+0x16c>
 800216a:	f5b2 5f40 	cmp.w	r2, #12288	; 0x3000
 800216e:	f43f af75 	beq.w	800205c <HAL_RCCEx_PeriphCLKConfig+0x198>
 8002172:	f5b2 4f80 	cmp.w	r2, #16384	; 0x4000
 8002176:	f43f af71 	beq.w	800205c <HAL_RCCEx_PeriphCLKConfig+0x198>
 800217a:	2601      	movs	r6, #1
 800217c:	4635      	mov	r5, r6
 800217e:	e777      	b.n	8002070 <HAL_RCCEx_PeriphCLKConfig+0x1ac>
 8002180:	f422 3180 	bic.w	r1, r2, #65536	; 0x10000
 8002184:	f5b1 2f80 	cmp.w	r1, #262144	; 0x40000
 8002188:	d085      	beq.n	8002096 <HAL_RCCEx_PeriphCLKConfig+0x1d2>
 800218a:	f5b2 3f40 	cmp.w	r2, #196608	; 0x30000
 800218e:	d082      	beq.n	8002096 <HAL_RCCEx_PeriphCLKConfig+0x1d2>
 8002190:	2601      	movs	r6, #1
 8002192:	4635      	mov	r5, r6
 8002194:	e789      	b.n	80020aa <HAL_RCCEx_PeriphCLKConfig+0x1e6>
 8002196:	f022 5180 	bic.w	r1, r2, #268435456	; 0x10000000
 800219a:	f1b1 4f80 	cmp.w	r1, #1073741824	; 0x40000000
 800219e:	d097      	beq.n	80020d0 <HAL_RCCEx_PeriphCLKConfig+0x20c>
 80021a0:	f1b2 5f40 	cmp.w	r2, #805306368	; 0x30000000
 80021a4:	d094      	beq.n	80020d0 <HAL_RCCEx_PeriphCLKConfig+0x20c>
 80021a6:	2601      	movs	r6, #1
 80021a8:	4635      	mov	r5, r6
 80021aa:	e79c      	b.n	80020e6 <HAL_RCCEx_PeriphCLKConfig+0x222>
 80021ac:	58024400 	.word	0x58024400
 80021b0:	2102      	movs	r1, #2
 80021b2:	1d20      	adds	r0, r4, #4
 80021b4:	f7ff fd8e 	bl	8001cd4 <RCCEx_PLL2_Config>
 80021b8:	6823      	ldr	r3, [r4, #0]
 80021ba:	4605      	mov	r5, r0
 80021bc:	2d00      	cmp	r5, #0
 80021be:	f000 828e 	beq.w	80026de <HAL_RCCEx_PeriphCLKConfig+0x81a>
 80021c2:	462e      	mov	r6, r5
 80021c4:	0259      	lsls	r1, r3, #9
 80021c6:	f100 8208 	bmi.w	80025da <HAL_RCCEx_PeriphCLKConfig+0x716>
 80021ca:	07df      	lsls	r7, r3, #31
 80021cc:	d539      	bpl.n	8002242 <HAL_RCCEx_PeriphCLKConfig+0x37e>
 80021ce:	6fa2      	ldr	r2, [r4, #120]	; 0x78
 80021d0:	2a28      	cmp	r2, #40	; 0x28
 80021d2:	f200 8174 	bhi.w	80024be <HAL_RCCEx_PeriphCLKConfig+0x5fa>
 80021d6:	e8df f012 	tbh	[pc, r2, lsl #1]
 80021da:	0030      	.short	0x0030
 80021dc:	01720172 	.word	0x01720172
 80021e0:	01720172 	.word	0x01720172
 80021e4:	01720172 	.word	0x01720172
 80021e8:	03580172 	.word	0x03580172
 80021ec:	01720172 	.word	0x01720172
 80021f0:	01720172 	.word	0x01720172
 80021f4:	01720172 	.word	0x01720172
 80021f8:	00290172 	.word	0x00290172
 80021fc:	01720172 	.word	0x01720172
 8002200:	01720172 	.word	0x01720172
 8002204:	01720172 	.word	0x01720172
 8002208:	00300172 	.word	0x00300172
 800220c:	01720172 	.word	0x01720172
 8002210:	01720172 	.word	0x01720172
 8002214:	01720172 	.word	0x01720172
 8002218:	00300172 	.word	0x00300172
 800221c:	01720172 	.word	0x01720172
 8002220:	01720172 	.word	0x01720172
 8002224:	01720172 	.word	0x01720172
 8002228:	00300172 	.word	0x00300172
 800222c:	2101      	movs	r1, #1
 800222e:	f104 0024 	add.w	r0, r4, #36	; 0x24
 8002232:	f7ff fdcb 	bl	8001dcc <RCCEx_PLL3_Config>
 8002236:	6823      	ldr	r3, [r4, #0]
 8002238:	4605      	mov	r5, r0
 800223a:	2d00      	cmp	r5, #0
 800223c:	f000 826b 	beq.w	8002716 <HAL_RCCEx_PeriphCLKConfig+0x852>
 8002240:	462e      	mov	r6, r5
 8002242:	0798      	lsls	r0, r3, #30
 8002244:	d516      	bpl.n	8002274 <HAL_RCCEx_PeriphCLKConfig+0x3b0>
 8002246:	6f62      	ldr	r2, [r4, #116]	; 0x74
 8002248:	2a05      	cmp	r2, #5
 800224a:	f200 8384 	bhi.w	8002956 <HAL_RCCEx_PeriphCLKConfig+0xa92>
 800224e:	e8df f012 	tbh	[pc, r2, lsl #1]
 8002252:	000d      	.short	0x000d
 8002254:	00060308 	.word	0x00060308
 8002258:	000d000d 	.word	0x000d000d
 800225c:	000d      	.short	0x000d
 800225e:	2101      	movs	r1, #1
 8002260:	f104 0024 	add.w	r0, r4, #36	; 0x24
 8002264:	f7ff fdb2 	bl	8001dcc <RCCEx_PLL3_Config>
 8002268:	6823      	ldr	r3, [r4, #0]
 800226a:	4605      	mov	r5, r0
 800226c:	2d00      	cmp	r5, #0
 800226e:	f000 822c 	beq.w	80026ca <HAL_RCCEx_PeriphCLKConfig+0x806>
 8002272:	462e      	mov	r6, r5
 8002274:	0759      	lsls	r1, r3, #29
 8002276:	d517      	bpl.n	80022a8 <HAL_RCCEx_PeriphCLKConfig+0x3e4>
 8002278:	f8d4 2090 	ldr.w	r2, [r4, #144]	; 0x90
 800227c:	2a05      	cmp	r2, #5
 800227e:	f200 8370 	bhi.w	8002962 <HAL_RCCEx_PeriphCLKConfig+0xa9e>
 8002282:	e8df f012 	tbh	[pc, r2, lsl #1]
 8002286:	000d      	.short	0x000d
 8002288:	000602f8 	.word	0x000602f8
 800228c:	000d000d 	.word	0x000d000d
 8002290:	000d      	.short	0x000d
 8002292:	2101      	movs	r1, #1
 8002294:	f104 0024 	add.w	r0, r4, #36	; 0x24
 8002298:	f7ff fd98 	bl	8001dcc <RCCEx_PLL3_Config>
 800229c:	6823      	ldr	r3, [r4, #0]
 800229e:	4605      	mov	r5, r0
 80022a0:	2d00      	cmp	r5, #0
 80022a2:	f000 8209 	beq.w	80026b8 <HAL_RCCEx_PeriphCLKConfig+0x7f4>
 80022a6:	462e      	mov	r6, r5
 80022a8:	069a      	lsls	r2, r3, #26
 80022aa:	d51d      	bpl.n	80022e8 <HAL_RCCEx_PeriphCLKConfig+0x424>
 80022ac:	f8d4 208c 	ldr.w	r2, [r4, #140]	; 0x8c
 80022b0:	f1b2 5f00 	cmp.w	r2, #536870912	; 0x20000000
 80022b4:	f000 8271 	beq.w	800279a <HAL_RCCEx_PeriphCLKConfig+0x8d6>
 80022b8:	f200 8121 	bhi.w	80024fe <HAL_RCCEx_PeriphCLKConfig+0x63a>
 80022bc:	b14a      	cbz	r2, 80022d2 <HAL_RCCEx_PeriphCLKConfig+0x40e>
 80022be:	f1b2 5f80 	cmp.w	r2, #268435456	; 0x10000000
 80022c2:	f040 8126 	bne.w	8002512 <HAL_RCCEx_PeriphCLKConfig+0x64e>
 80022c6:	2100      	movs	r1, #0
 80022c8:	1d20      	adds	r0, r4, #4
 80022ca:	f7ff fd03 	bl	8001cd4 <RCCEx_PLL2_Config>
 80022ce:	6823      	ldr	r3, [r4, #0]
 80022d0:	4605      	mov	r5, r0
 80022d2:	2d00      	cmp	r5, #0
 80022d4:	f040 8213 	bne.w	80026fe <HAL_RCCEx_PeriphCLKConfig+0x83a>
 80022d8:	49b9      	ldr	r1, [pc, #740]	; (80025c0 <HAL_RCCEx_PeriphCLKConfig+0x6fc>)
 80022da:	f8d4 008c 	ldr.w	r0, [r4, #140]	; 0x8c
 80022de:	6d4a      	ldr	r2, [r1, #84]	; 0x54
 80022e0:	f022 42e0 	bic.w	r2, r2, #1879048192	; 0x70000000
 80022e4:	4302      	orrs	r2, r0
 80022e6:	654a      	str	r2, [r1, #84]	; 0x54
 80022e8:	065f      	lsls	r7, r3, #25
 80022ea:	d51d      	bpl.n	8002328 <HAL_RCCEx_PeriphCLKConfig+0x464>
 80022ec:	f8d4 2098 	ldr.w	r2, [r4, #152]	; 0x98
 80022f0:	f5b2 6f00 	cmp.w	r2, #2048	; 0x800
 80022f4:	f000 823f 	beq.w	8002776 <HAL_RCCEx_PeriphCLKConfig+0x8b2>
 80022f8:	f200 8129 	bhi.w	800254e <HAL_RCCEx_PeriphCLKConfig+0x68a>
 80022fc:	b14a      	cbz	r2, 8002312 <HAL_RCCEx_PeriphCLKConfig+0x44e>
 80022fe:	f5b2 6f80 	cmp.w	r2, #1024	; 0x400
 8002302:	f040 812e 	bne.w	8002562 <HAL_RCCEx_PeriphCLKConfig+0x69e>
 8002306:	2100      	movs	r1, #0
 8002308:	1d20      	adds	r0, r4, #4
 800230a:	f7ff fce3 	bl	8001cd4 <RCCEx_PLL2_Config>
 800230e:	6823      	ldr	r3, [r4, #0]
 8002310:	4605      	mov	r5, r0
 8002312:	2d00      	cmp	r5, #0
 8002314:	f040 81ef 	bne.w	80026f6 <HAL_RCCEx_PeriphCLKConfig+0x832>
 8002318:	49a9      	ldr	r1, [pc, #676]	; (80025c0 <HAL_RCCEx_PeriphCLKConfig+0x6fc>)
 800231a:	f8d4 0098 	ldr.w	r0, [r4, #152]	; 0x98
 800231e:	6d8a      	ldr	r2, [r1, #88]	; 0x58
 8002320:	f422 52e0 	bic.w	r2, r2, #7168	; 0x1c00
 8002324:	4302      	orrs	r2, r0
 8002326:	658a      	str	r2, [r1, #88]	; 0x58
 8002328:	0618      	lsls	r0, r3, #24
 800232a:	d51d      	bpl.n	8002368 <HAL_RCCEx_PeriphCLKConfig+0x4a4>
 800232c:	f8d4 209c 	ldr.w	r2, [r4, #156]	; 0x9c
 8002330:	f5b2 4f80 	cmp.w	r2, #16384	; 0x4000
 8002334:	f000 8215 	beq.w	8002762 <HAL_RCCEx_PeriphCLKConfig+0x89e>
 8002338:	f200 80fc 	bhi.w	8002534 <HAL_RCCEx_PeriphCLKConfig+0x670>
 800233c:	b14a      	cbz	r2, 8002352 <HAL_RCCEx_PeriphCLKConfig+0x48e>
 800233e:	f5b2 5f00 	cmp.w	r2, #8192	; 0x2000
 8002342:	f040 8101 	bne.w	8002548 <HAL_RCCEx_PeriphCLKConfig+0x684>
 8002346:	2100      	movs	r1, #0
 8002348:	1d20      	adds	r0, r4, #4
 800234a:	f7ff fcc3 	bl	8001cd4 <RCCEx_PLL2_Config>
 800234e:	6823      	ldr	r3, [r4, #0]
 8002350:	4605      	mov	r5, r0
 8002352:	2d00      	cmp	r5, #0
 8002354:	f040 81d1 	bne.w	80026fa <HAL_RCCEx_PeriphCLKConfig+0x836>
 8002358:	4999      	ldr	r1, [pc, #612]	; (80025c0 <HAL_RCCEx_PeriphCLKConfig+0x6fc>)
 800235a:	f8d4 009c 	ldr.w	r0, [r4, #156]	; 0x9c
 800235e:	6d8a      	ldr	r2, [r1, #88]	; 0x58
 8002360:	f422 4260 	bic.w	r2, r2, #57344	; 0xe000
 8002364:	4302      	orrs	r2, r0
 8002366:	658a      	str	r2, [r1, #88]	; 0x58
 8002368:	0719      	lsls	r1, r3, #28
 800236a:	d50b      	bpl.n	8002384 <HAL_RCCEx_PeriphCLKConfig+0x4c0>
 800236c:	f8d4 1080 	ldr.w	r1, [r4, #128]	; 0x80
 8002370:	f5b1 5f80 	cmp.w	r1, #4096	; 0x1000
 8002374:	f000 8225 	beq.w	80027c2 <HAL_RCCEx_PeriphCLKConfig+0x8fe>
 8002378:	4891      	ldr	r0, [pc, #580]	; (80025c0 <HAL_RCCEx_PeriphCLKConfig+0x6fc>)
 800237a:	6d42      	ldr	r2, [r0, #84]	; 0x54
 800237c:	f422 5240 	bic.w	r2, r2, #12288	; 0x3000
 8002380:	430a      	orrs	r2, r1
 8002382:	6542      	str	r2, [r0, #84]	; 0x54
 8002384:	06da      	lsls	r2, r3, #27
 8002386:	d50b      	bpl.n	80023a0 <HAL_RCCEx_PeriphCLKConfig+0x4dc>
 8002388:	f8d4 1094 	ldr.w	r1, [r4, #148]	; 0x94
 800238c:	f5b1 7f80 	cmp.w	r1, #256	; 0x100
 8002390:	f000 82b2 	beq.w	80028f8 <HAL_RCCEx_PeriphCLKConfig+0xa34>
 8002394:	488a      	ldr	r0, [pc, #552]	; (80025c0 <HAL_RCCEx_PeriphCLKConfig+0x6fc>)
 8002396:	6d82      	ldr	r2, [r0, #88]	; 0x58
 8002398:	f422 7240 	bic.w	r2, r2, #768	; 0x300
 800239c:	430a      	orrs	r2, r1
 800239e:	6582      	str	r2, [r0, #88]	; 0x58
 80023a0:	031f      	lsls	r7, r3, #12
 80023a2:	d50e      	bpl.n	80023c2 <HAL_RCCEx_PeriphCLKConfig+0x4fe>
 80023a4:	f8d4 10a0 	ldr.w	r1, [r4, #160]	; 0xa0
 80023a8:	f5b1 3f80 	cmp.w	r1, #65536	; 0x10000
 80023ac:	f000 80f2 	beq.w	8002594 <HAL_RCCEx_PeriphCLKConfig+0x6d0>
 80023b0:	f5b1 3f00 	cmp.w	r1, #131072	; 0x20000
 80023b4:	f000 80f5 	beq.w	80025a2 <HAL_RCCEx_PeriphCLKConfig+0x6de>
 80023b8:	2900      	cmp	r1, #0
 80023ba:	f000 828b 	beq.w	80028d4 <HAL_RCCEx_PeriphCLKConfig+0xa10>
 80023be:	2601      	movs	r6, #1
 80023c0:	4635      	mov	r5, r6
 80023c2:	0358      	lsls	r0, r3, #13
 80023c4:	d50f      	bpl.n	80023e6 <HAL_RCCEx_PeriphCLKConfig+0x522>
 80023c6:	f8d4 2084 	ldr.w	r2, [r4, #132]	; 0x84
 80023ca:	f5b2 1f00 	cmp.w	r2, #2097152	; 0x200000
 80023ce:	f000 80cb 	beq.w	8002568 <HAL_RCCEx_PeriphCLKConfig+0x6a4>
 80023d2:	f5b2 1f40 	cmp.w	r2, #3145728	; 0x300000
 80023d6:	f000 80ce 	beq.w	8002576 <HAL_RCCEx_PeriphCLKConfig+0x6b2>
 80023da:	f5b2 1f80 	cmp.w	r2, #1048576	; 0x100000
 80023de:	f000 8282 	beq.w	80028e6 <HAL_RCCEx_PeriphCLKConfig+0xa22>
 80023e2:	2601      	movs	r6, #1
 80023e4:	4635      	mov	r5, r6
 80023e6:	03d9      	lsls	r1, r3, #15
 80023e8:	d517      	bpl.n	800241a <HAL_RCCEx_PeriphCLKConfig+0x556>
 80023ea:	6ce2      	ldr	r2, [r4, #76]	; 0x4c
 80023ec:	2a00      	cmp	r2, #0
 80023ee:	f000 825f 	beq.w	80028b0 <HAL_RCCEx_PeriphCLKConfig+0x9ec>
 80023f2:	f5b2 3f80 	cmp.w	r2, #65536	; 0x10000
 80023f6:	f040 8132 	bne.w	800265e <HAL_RCCEx_PeriphCLKConfig+0x79a>
 80023fa:	2102      	movs	r1, #2
 80023fc:	1d20      	adds	r0, r4, #4
 80023fe:	f7ff fc69 	bl	8001cd4 <RCCEx_PLL2_Config>
 8002402:	4605      	mov	r5, r0
 8002404:	6823      	ldr	r3, [r4, #0]
 8002406:	2d00      	cmp	r5, #0
 8002408:	f040 818d 	bne.w	8002726 <HAL_RCCEx_PeriphCLKConfig+0x862>
 800240c:	496c      	ldr	r1, [pc, #432]	; (80025c0 <HAL_RCCEx_PeriphCLKConfig+0x6fc>)
 800240e:	6ce0      	ldr	r0, [r4, #76]	; 0x4c
 8002410:	6cca      	ldr	r2, [r1, #76]	; 0x4c
 8002412:	f422 3280 	bic.w	r2, r2, #65536	; 0x10000
 8002416:	4302      	orrs	r2, r0
 8002418:	64ca      	str	r2, [r1, #76]	; 0x4c
 800241a:	009a      	lsls	r2, r3, #2
 800241c:	f100 80d2 	bmi.w	80025c4 <HAL_RCCEx_PeriphCLKConfig+0x700>
 8002420:	039f      	lsls	r7, r3, #14
 8002422:	d43f      	bmi.n	80024a4 <HAL_RCCEx_PeriphCLKConfig+0x5e0>
 8002424:	1e30      	subs	r0, r6, #0
 8002426:	bf18      	it	ne
 8002428:	2001      	movne	r0, #1
 800242a:	02de      	lsls	r6, r3, #11
 800242c:	d506      	bpl.n	800243c <HAL_RCCEx_PeriphCLKConfig+0x578>
 800242e:	4964      	ldr	r1, [pc, #400]	; (80025c0 <HAL_RCCEx_PeriphCLKConfig+0x6fc>)
 8002430:	6f25      	ldr	r5, [r4, #112]	; 0x70
 8002432:	6d0a      	ldr	r2, [r1, #80]	; 0x50
 8002434:	f022 4200 	bic.w	r2, r2, #2147483648	; 0x80000000
 8002438:	432a      	orrs	r2, r5
 800243a:	650a      	str	r2, [r1, #80]	; 0x50
 800243c:	00dd      	lsls	r5, r3, #3
 800243e:	d507      	bpl.n	8002450 <HAL_RCCEx_PeriphCLKConfig+0x58c>
 8002440:	495f      	ldr	r1, [pc, #380]	; (80025c0 <HAL_RCCEx_PeriphCLKConfig+0x6fc>)
 8002442:	f8d4 50b4 	ldr.w	r5, [r4, #180]	; 0xb4
 8002446:	690a      	ldr	r2, [r1, #16]
 8002448:	f422 4280 	bic.w	r2, r2, #16384	; 0x4000
 800244c:	432a      	orrs	r2, r5
 800244e:	610a      	str	r2, [r1, #16]
 8002450:	0299      	lsls	r1, r3, #10
 8002452:	d506      	bpl.n	8002462 <HAL_RCCEx_PeriphCLKConfig+0x59e>
 8002454:	495a      	ldr	r1, [pc, #360]	; (80025c0 <HAL_RCCEx_PeriphCLKConfig+0x6fc>)
 8002456:	6ea5      	ldr	r5, [r4, #104]	; 0x68
 8002458:	6d0a      	ldr	r2, [r1, #80]	; 0x50
 800245a:	f022 7280 	bic.w	r2, r2, #16777216	; 0x1000000
 800245e:	432a      	orrs	r2, r5
 8002460:	650a      	str	r2, [r1, #80]	; 0x50
 8002462:	005a      	lsls	r2, r3, #1
 8002464:	d509      	bpl.n	800247a <HAL_RCCEx_PeriphCLKConfig+0x5b6>
 8002466:	4a56      	ldr	r2, [pc, #344]	; (80025c0 <HAL_RCCEx_PeriphCLKConfig+0x6fc>)
 8002468:	6911      	ldr	r1, [r2, #16]
 800246a:	f421 4100 	bic.w	r1, r1, #32768	; 0x8000
 800246e:	6111      	str	r1, [r2, #16]
 8002470:	6911      	ldr	r1, [r2, #16]
 8002472:	f8d4 50b8 	ldr.w	r5, [r4, #184]	; 0xb8
 8002476:	4329      	orrs	r1, r5
 8002478:	6111      	str	r1, [r2, #16]
 800247a:	2b00      	cmp	r3, #0
 800247c:	da06      	bge.n	800248c <HAL_RCCEx_PeriphCLKConfig+0x5c8>
 800247e:	4950      	ldr	r1, [pc, #320]	; (80025c0 <HAL_RCCEx_PeriphCLKConfig+0x6fc>)
 8002480:	6d25      	ldr	r5, [r4, #80]	; 0x50
 8002482:	6cca      	ldr	r2, [r1, #76]	; 0x4c
 8002484:	f022 5240 	bic.w	r2, r2, #805306368	; 0x30000000
 8002488:	432a      	orrs	r2, r5
 800248a:	64ca      	str	r2, [r1, #76]	; 0x4c
 800248c:	021b      	lsls	r3, r3, #8
 800248e:	d507      	bpl.n	80024a0 <HAL_RCCEx_PeriphCLKConfig+0x5dc>
 8002490:	4a4b      	ldr	r2, [pc, #300]	; (80025c0 <HAL_RCCEx_PeriphCLKConfig+0x6fc>)
 8002492:	f8d4 1088 	ldr.w	r1, [r4, #136]	; 0x88
 8002496:	6d53      	ldr	r3, [r2, #84]	; 0x54
 8002498:	f423 0340 	bic.w	r3, r3, #12582912	; 0xc00000
 800249c:	430b      	orrs	r3, r1
 800249e:	6553      	str	r3, [r2, #84]	; 0x54
 80024a0:	e8bd 83f8 	ldmia.w	sp!, {r3, r4, r5, r6, r7, r8, r9, pc}
 80024a4:	6fe2      	ldr	r2, [r4, #124]	; 0x7c
 80024a6:	f5b2 7f80 	cmp.w	r2, #256	; 0x100
 80024aa:	f000 820a 	beq.w	80028c2 <HAL_RCCEx_PeriphCLKConfig+0x9fe>
 80024ae:	d933      	bls.n	8002518 <HAL_RCCEx_PeriphCLKConfig+0x654>
 80024b0:	f422 7180 	bic.w	r1, r2, #256	; 0x100
 80024b4:	f5b1 7f00 	cmp.w	r1, #512	; 0x200
 80024b8:	d030      	beq.n	800251c <HAL_RCCEx_PeriphCLKConfig+0x658>
 80024ba:	2001      	movs	r0, #1
 80024bc:	e7b5      	b.n	800242a <HAL_RCCEx_PeriphCLKConfig+0x566>
 80024be:	2601      	movs	r6, #1
 80024c0:	4635      	mov	r5, r6
 80024c2:	e6be      	b.n	8002242 <HAL_RCCEx_PeriphCLKConfig+0x37e>
 80024c4:	4635      	mov	r5, r6
 80024c6:	2d00      	cmp	r5, #0
 80024c8:	f040 80cc 	bne.w	8002664 <HAL_RCCEx_PeriphCLKConfig+0x7a0>
 80024cc:	493c      	ldr	r1, [pc, #240]	; (80025c0 <HAL_RCCEx_PeriphCLKConfig+0x6fc>)
 80024ce:	6d60      	ldr	r0, [r4, #84]	; 0x54
 80024d0:	6d0a      	ldr	r2, [r1, #80]	; 0x50
 80024d2:	f022 0207 	bic.w	r2, r2, #7
 80024d6:	4302      	orrs	r2, r0
 80024d8:	650a      	str	r2, [r1, #80]	; 0x50
 80024da:	e52c      	b.n	8001f36 <HAL_RCCEx_PeriphCLKConfig+0x72>
 80024dc:	2101      	movs	r1, #1
 80024de:	1d20      	adds	r0, r4, #4
 80024e0:	f7ff fbf8 	bl	8001cd4 <RCCEx_PLL2_Config>
 80024e4:	6823      	ldr	r3, [r4, #0]
 80024e6:	4605      	mov	r5, r0
 80024e8:	2d00      	cmp	r5, #0
 80024ea:	f040 80e3 	bne.w	80026b4 <HAL_RCCEx_PeriphCLKConfig+0x7f0>
 80024ee:	4934      	ldr	r1, [pc, #208]	; (80025c0 <HAL_RCCEx_PeriphCLKConfig+0x6fc>)
 80024f0:	6ee0      	ldr	r0, [r4, #108]	; 0x6c
 80024f2:	6d0a      	ldr	r2, [r1, #80]	; 0x50
 80024f4:	f022 5240 	bic.w	r2, r2, #805306368	; 0x30000000
 80024f8:	4302      	orrs	r2, r0
 80024fa:	650a      	str	r2, [r1, #80]	; 0x50
 80024fc:	e603      	b.n	8002106 <HAL_RCCEx_PeriphCLKConfig+0x242>
 80024fe:	f022 5180 	bic.w	r1, r2, #268435456	; 0x10000000
 8002502:	f1b1 4f80 	cmp.w	r1, #1073741824	; 0x40000000
 8002506:	f43f aee4 	beq.w	80022d2 <HAL_RCCEx_PeriphCLKConfig+0x40e>
 800250a:	f1b2 5f40 	cmp.w	r2, #805306368	; 0x30000000
 800250e:	f43f aee0 	beq.w	80022d2 <HAL_RCCEx_PeriphCLKConfig+0x40e>
 8002512:	2601      	movs	r6, #1
 8002514:	4635      	mov	r5, r6
 8002516:	e6e7      	b.n	80022e8 <HAL_RCCEx_PeriphCLKConfig+0x424>
 8002518:	2a00      	cmp	r2, #0
 800251a:	d1ce      	bne.n	80024ba <HAL_RCCEx_PeriphCLKConfig+0x5f6>
 800251c:	2d00      	cmp	r5, #0
 800251e:	d1cc      	bne.n	80024ba <HAL_RCCEx_PeriphCLKConfig+0x5f6>
 8002520:	4d27      	ldr	r5, [pc, #156]	; (80025c0 <HAL_RCCEx_PeriphCLKConfig+0x6fc>)
 8002522:	1e30      	subs	r0, r6, #0
 8002524:	6d69      	ldr	r1, [r5, #84]	; 0x54
 8002526:	bf18      	it	ne
 8002528:	2001      	movne	r0, #1
 800252a:	f421 7140 	bic.w	r1, r1, #768	; 0x300
 800252e:	430a      	orrs	r2, r1
 8002530:	656a      	str	r2, [r5, #84]	; 0x54
 8002532:	e77a      	b.n	800242a <HAL_RCCEx_PeriphCLKConfig+0x566>
 8002534:	f422 5100 	bic.w	r1, r2, #8192	; 0x2000
 8002538:	f5b1 4f00 	cmp.w	r1, #32768	; 0x8000
 800253c:	f43f af09 	beq.w	8002352 <HAL_RCCEx_PeriphCLKConfig+0x48e>
 8002540:	f5b2 4fc0 	cmp.w	r2, #24576	; 0x6000
 8002544:	f43f af05 	beq.w	8002352 <HAL_RCCEx_PeriphCLKConfig+0x48e>
 8002548:	2601      	movs	r6, #1
 800254a:	4635      	mov	r5, r6
 800254c:	e70c      	b.n	8002368 <HAL_RCCEx_PeriphCLKConfig+0x4a4>
 800254e:	f422 6180 	bic.w	r1, r2, #1024	; 0x400
 8002552:	f5b1 5f80 	cmp.w	r1, #4096	; 0x1000
 8002556:	f43f aedc 	beq.w	8002312 <HAL_RCCEx_PeriphCLKConfig+0x44e>
 800255a:	f5b2 6f40 	cmp.w	r2, #3072	; 0xc00
 800255e:	f43f aed8 	beq.w	8002312 <HAL_RCCEx_PeriphCLKConfig+0x44e>
 8002562:	2601      	movs	r6, #1
 8002564:	4635      	mov	r5, r6
 8002566:	e6df      	b.n	8002328 <HAL_RCCEx_PeriphCLKConfig+0x464>
 8002568:	2101      	movs	r1, #1
 800256a:	f104 0024 	add.w	r0, r4, #36	; 0x24
 800256e:	f7ff fc2d 	bl	8001dcc <RCCEx_PLL3_Config>
 8002572:	6823      	ldr	r3, [r4, #0]
 8002574:	4605      	mov	r5, r0
 8002576:	2d00      	cmp	r5, #0
 8002578:	f040 80c8 	bne.w	800270c <HAL_RCCEx_PeriphCLKConfig+0x848>
 800257c:	4910      	ldr	r1, [pc, #64]	; (80025c0 <HAL_RCCEx_PeriphCLKConfig+0x6fc>)
 800257e:	f8d4 0084 	ldr.w	r0, [r4, #132]	; 0x84
 8002582:	6d4a      	ldr	r2, [r1, #84]	; 0x54
 8002584:	f422 1240 	bic.w	r2, r2, #3145728	; 0x300000
 8002588:	4302      	orrs	r2, r0
 800258a:	654a      	str	r2, [r1, #84]	; 0x54
 800258c:	03d9      	lsls	r1, r3, #15
 800258e:	f57f af44 	bpl.w	800241a <HAL_RCCEx_PeriphCLKConfig+0x556>
 8002592:	e72a      	b.n	80023ea <HAL_RCCEx_PeriphCLKConfig+0x526>
 8002594:	2102      	movs	r1, #2
 8002596:	f104 0024 	add.w	r0, r4, #36	; 0x24
 800259a:	f7ff fc17 	bl	8001dcc <RCCEx_PLL3_Config>
 800259e:	6823      	ldr	r3, [r4, #0]
 80025a0:	4605      	mov	r5, r0
 80025a2:	2d00      	cmp	r5, #0
 80025a4:	f040 80ad 	bne.w	8002702 <HAL_RCCEx_PeriphCLKConfig+0x83e>
 80025a8:	4905      	ldr	r1, [pc, #20]	; (80025c0 <HAL_RCCEx_PeriphCLKConfig+0x6fc>)
 80025aa:	f8d4 00a0 	ldr.w	r0, [r4, #160]	; 0xa0
 80025ae:	6d8a      	ldr	r2, [r1, #88]	; 0x58
 80025b0:	f422 3240 	bic.w	r2, r2, #196608	; 0x30000
 80025b4:	4302      	orrs	r2, r0
 80025b6:	0358      	lsls	r0, r3, #13
 80025b8:	658a      	str	r2, [r1, #88]	; 0x58
 80025ba:	f57f af14 	bpl.w	80023e6 <HAL_RCCEx_PeriphCLKConfig+0x522>
 80025be:	e702      	b.n	80023c6 <HAL_RCCEx_PeriphCLKConfig+0x502>
 80025c0:	58024400 	.word	0x58024400
 80025c4:	2102      	movs	r1, #2
 80025c6:	f104 0024 	add.w	r0, r4, #36	; 0x24
 80025ca:	f7ff fbff 	bl	8001dcc <RCCEx_PLL3_Config>
 80025ce:	6823      	ldr	r3, [r4, #0]
 80025d0:	2800      	cmp	r0, #0
 80025d2:	f43f af25 	beq.w	8002420 <HAL_RCCEx_PeriphCLKConfig+0x55c>
 80025d6:	2601      	movs	r6, #1
 80025d8:	e722      	b.n	8002420 <HAL_RCCEx_PeriphCLKConfig+0x55c>
 80025da:	4bb3      	ldr	r3, [pc, #716]	; (80028a8 <HAL_RCCEx_PeriphCLKConfig+0x9e4>)
 80025dc:	681a      	ldr	r2, [r3, #0]
 80025de:	4698      	mov	r8, r3
 80025e0:	f442 7280 	orr.w	r2, r2, #256	; 0x100
 80025e4:	601a      	str	r2, [r3, #0]
 80025e6:	f7fe fa05 	bl	80009f4 <HAL_GetTick>
 80025ea:	4607      	mov	r7, r0
 80025ec:	e005      	b.n	80025fa <HAL_RCCEx_PeriphCLKConfig+0x736>
 80025ee:	f7fe fa01 	bl	80009f4 <HAL_GetTick>
 80025f2:	1bc0      	subs	r0, r0, r7
 80025f4:	2864      	cmp	r0, #100	; 0x64
 80025f6:	f200 8152 	bhi.w	800289e <HAL_RCCEx_PeriphCLKConfig+0x9da>
 80025fa:	f8d8 3000 	ldr.w	r3, [r8]
 80025fe:	05da      	lsls	r2, r3, #23
 8002600:	d5f5      	bpl.n	80025ee <HAL_RCCEx_PeriphCLKConfig+0x72a>
 8002602:	2d00      	cmp	r5, #0
 8002604:	f040 81a1 	bne.w	800294a <HAL_RCCEx_PeriphCLKConfig+0xa86>
 8002608:	4aa8      	ldr	r2, [pc, #672]	; (80028ac <HAL_RCCEx_PeriphCLKConfig+0x9e8>)
 800260a:	f8d4 30b0 	ldr.w	r3, [r4, #176]	; 0xb0
 800260e:	6f11      	ldr	r1, [r2, #112]	; 0x70
 8002610:	4059      	eors	r1, r3
 8002612:	f411 7f40 	tst.w	r1, #768	; 0x300
 8002616:	d00b      	beq.n	8002630 <HAL_RCCEx_PeriphCLKConfig+0x76c>
 8002618:	6f11      	ldr	r1, [r2, #112]	; 0x70
 800261a:	6f10      	ldr	r0, [r2, #112]	; 0x70
 800261c:	f421 7140 	bic.w	r1, r1, #768	; 0x300
 8002620:	f440 3080 	orr.w	r0, r0, #65536	; 0x10000
 8002624:	6710      	str	r0, [r2, #112]	; 0x70
 8002626:	6f10      	ldr	r0, [r2, #112]	; 0x70
 8002628:	f420 3080 	bic.w	r0, r0, #65536	; 0x10000
 800262c:	6710      	str	r0, [r2, #112]	; 0x70
 800262e:	6711      	str	r1, [r2, #112]	; 0x70
 8002630:	f5b3 7f80 	cmp.w	r3, #256	; 0x100
 8002634:	f000 816b 	beq.w	800290e <HAL_RCCEx_PeriphCLKConfig+0xa4a>
 8002638:	f403 7240 	and.w	r2, r3, #768	; 0x300
 800263c:	f5b2 7f40 	cmp.w	r2, #768	; 0x300
 8002640:	f000 8179 	beq.w	8002936 <HAL_RCCEx_PeriphCLKConfig+0xa72>
 8002644:	4999      	ldr	r1, [pc, #612]	; (80028ac <HAL_RCCEx_PeriphCLKConfig+0x9e8>)
 8002646:	690a      	ldr	r2, [r1, #16]
 8002648:	f422 527c 	bic.w	r2, r2, #16128	; 0x3f00
 800264c:	610a      	str	r2, [r1, #16]
 800264e:	4a97      	ldr	r2, [pc, #604]	; (80028ac <HAL_RCCEx_PeriphCLKConfig+0x9e8>)
 8002650:	f3c3 030b 	ubfx	r3, r3, #0, #12
 8002654:	6f11      	ldr	r1, [r2, #112]	; 0x70
 8002656:	430b      	orrs	r3, r1
 8002658:	6713      	str	r3, [r2, #112]	; 0x70
 800265a:	6823      	ldr	r3, [r4, #0]
 800265c:	e5b5      	b.n	80021ca <HAL_RCCEx_PeriphCLKConfig+0x306>
 800265e:	2601      	movs	r6, #1
 8002660:	4635      	mov	r5, r6
 8002662:	e6da      	b.n	800241a <HAL_RCCEx_PeriphCLKConfig+0x556>
 8002664:	462e      	mov	r6, r5
 8002666:	e466      	b.n	8001f36 <HAL_RCCEx_PeriphCLKConfig+0x72>
 8002668:	462e      	mov	r6, r5
 800266a:	e4c6      	b.n	8001ffa <HAL_RCCEx_PeriphCLKConfig+0x136>
 800266c:	462e      	mov	r6, r5
 800266e:	e4ff      	b.n	8002070 <HAL_RCCEx_PeriphCLKConfig+0x1ac>
 8002670:	462e      	mov	r6, r5
 8002672:	e47e      	b.n	8001f72 <HAL_RCCEx_PeriphCLKConfig+0xae>
 8002674:	462e      	mov	r6, r5
 8002676:	e49e      	b.n	8001fb6 <HAL_RCCEx_PeriphCLKConfig+0xf2>
 8002678:	498c      	ldr	r1, [pc, #560]	; (80028ac <HAL_RCCEx_PeriphCLKConfig+0x9e8>)
 800267a:	6aca      	ldr	r2, [r1, #44]	; 0x2c
 800267c:	f442 3200 	orr.w	r2, r2, #131072	; 0x20000
 8002680:	62ca      	str	r2, [r1, #44]	; 0x2c
 8002682:	e4eb      	b.n	800205c <HAL_RCCEx_PeriphCLKConfig+0x198>
 8002684:	4989      	ldr	r1, [pc, #548]	; (80028ac <HAL_RCCEx_PeriphCLKConfig+0x9e8>)
 8002686:	6aca      	ldr	r2, [r1, #44]	; 0x2c
 8002688:	f442 3200 	orr.w	r2, r2, #131072	; 0x20000
 800268c:	62ca      	str	r2, [r1, #44]	; 0x2c
 800268e:	e487      	b.n	8001fa0 <HAL_RCCEx_PeriphCLKConfig+0xdc>
 8002690:	4986      	ldr	r1, [pc, #536]	; (80028ac <HAL_RCCEx_PeriphCLKConfig+0x9e8>)
 8002692:	6aca      	ldr	r2, [r1, #44]	; 0x2c
 8002694:	f442 3200 	orr.w	r2, r2, #131072	; 0x20000
 8002698:	62ca      	str	r2, [r1, #44]	; 0x2c
 800269a:	e460      	b.n	8001f5e <HAL_RCCEx_PeriphCLKConfig+0x9a>
 800269c:	4883      	ldr	r0, [pc, #524]	; (80028ac <HAL_RCCEx_PeriphCLKConfig+0x9e8>)
 800269e:	6ac1      	ldr	r1, [r0, #44]	; 0x2c
 80026a0:	f441 3100 	orr.w	r1, r1, #131072	; 0x20000
 80026a4:	62c1      	str	r1, [r0, #44]	; 0x2c
 80026a6:	e42a      	b.n	8001efe <HAL_RCCEx_PeriphCLKConfig+0x3a>
 80026a8:	4980      	ldr	r1, [pc, #512]	; (80028ac <HAL_RCCEx_PeriphCLKConfig+0x9e8>)
 80026aa:	6aca      	ldr	r2, [r1, #44]	; 0x2c
 80026ac:	f442 3200 	orr.w	r2, r2, #131072	; 0x20000
 80026b0:	62ca      	str	r2, [r1, #44]	; 0x2c
 80026b2:	e497      	b.n	8001fe4 <HAL_RCCEx_PeriphCLKConfig+0x120>
 80026b4:	462e      	mov	r6, r5
 80026b6:	e526      	b.n	8002106 <HAL_RCCEx_PeriphCLKConfig+0x242>
 80026b8:	497c      	ldr	r1, [pc, #496]	; (80028ac <HAL_RCCEx_PeriphCLKConfig+0x9e8>)
 80026ba:	f8d4 0090 	ldr.w	r0, [r4, #144]	; 0x90
 80026be:	6d8a      	ldr	r2, [r1, #88]	; 0x58
 80026c0:	f022 0207 	bic.w	r2, r2, #7
 80026c4:	4302      	orrs	r2, r0
 80026c6:	658a      	str	r2, [r1, #88]	; 0x58
 80026c8:	e5ee      	b.n	80022a8 <HAL_RCCEx_PeriphCLKConfig+0x3e4>
 80026ca:	4978      	ldr	r1, [pc, #480]	; (80028ac <HAL_RCCEx_PeriphCLKConfig+0x9e8>)
 80026cc:	6f60      	ldr	r0, [r4, #116]	; 0x74
 80026ce:	6d4a      	ldr	r2, [r1, #84]	; 0x54
 80026d0:	f022 0207 	bic.w	r2, r2, #7
 80026d4:	4302      	orrs	r2, r0
 80026d6:	654a      	str	r2, [r1, #84]	; 0x54
 80026d8:	e5cc      	b.n	8002274 <HAL_RCCEx_PeriphCLKConfig+0x3b0>
 80026da:	462e      	mov	r6, r5
 80026dc:	e503      	b.n	80020e6 <HAL_RCCEx_PeriphCLKConfig+0x222>
 80026de:	4973      	ldr	r1, [pc, #460]	; (80028ac <HAL_RCCEx_PeriphCLKConfig+0x9e8>)
 80026e0:	6c60      	ldr	r0, [r4, #68]	; 0x44
 80026e2:	6cca      	ldr	r2, [r1, #76]	; 0x4c
 80026e4:	f022 0203 	bic.w	r2, r2, #3
 80026e8:	4302      	orrs	r2, r0
 80026ea:	64ca      	str	r2, [r1, #76]	; 0x4c
 80026ec:	e56a      	b.n	80021c4 <HAL_RCCEx_PeriphCLKConfig+0x300>
 80026ee:	462e      	mov	r6, r5
 80026f0:	e49e      	b.n	8002030 <HAL_RCCEx_PeriphCLKConfig+0x16c>
 80026f2:	462e      	mov	r6, r5
 80026f4:	e4d9      	b.n	80020aa <HAL_RCCEx_PeriphCLKConfig+0x1e6>
 80026f6:	462e      	mov	r6, r5
 80026f8:	e616      	b.n	8002328 <HAL_RCCEx_PeriphCLKConfig+0x464>
 80026fa:	462e      	mov	r6, r5
 80026fc:	e634      	b.n	8002368 <HAL_RCCEx_PeriphCLKConfig+0x4a4>
 80026fe:	462e      	mov	r6, r5
 8002700:	e5f2      	b.n	80022e8 <HAL_RCCEx_PeriphCLKConfig+0x424>
 8002702:	0358      	lsls	r0, r3, #13
 8002704:	462e      	mov	r6, r5
 8002706:	f57f ae6e 	bpl.w	80023e6 <HAL_RCCEx_PeriphCLKConfig+0x522>
 800270a:	e65c      	b.n	80023c6 <HAL_RCCEx_PeriphCLKConfig+0x502>
 800270c:	03d9      	lsls	r1, r3, #15
 800270e:	462e      	mov	r6, r5
 8002710:	f57f ae83 	bpl.w	800241a <HAL_RCCEx_PeriphCLKConfig+0x556>
 8002714:	e669      	b.n	80023ea <HAL_RCCEx_PeriphCLKConfig+0x526>
 8002716:	4965      	ldr	r1, [pc, #404]	; (80028ac <HAL_RCCEx_PeriphCLKConfig+0x9e8>)
 8002718:	6fa0      	ldr	r0, [r4, #120]	; 0x78
 800271a:	6d4a      	ldr	r2, [r1, #84]	; 0x54
 800271c:	f022 0238 	bic.w	r2, r2, #56	; 0x38
 8002720:	4302      	orrs	r2, r0
 8002722:	654a      	str	r2, [r1, #84]	; 0x54
 8002724:	e58d      	b.n	8002242 <HAL_RCCEx_PeriphCLKConfig+0x37e>
 8002726:	462e      	mov	r6, r5
 8002728:	e677      	b.n	800241a <HAL_RCCEx_PeriphCLKConfig+0x556>
 800272a:	2102      	movs	r1, #2
 800272c:	1d20      	adds	r0, r4, #4
 800272e:	f7ff fad1 	bl	8001cd4 <RCCEx_PLL2_Config>
 8002732:	4605      	mov	r5, r0
 8002734:	6823      	ldr	r3, [r4, #0]
 8002736:	2d00      	cmp	r5, #0
 8002738:	d1d9      	bne.n	80026ee <HAL_RCCEx_PeriphCLKConfig+0x82a>
 800273a:	e472      	b.n	8002022 <HAL_RCCEx_PeriphCLKConfig+0x15e>
 800273c:	495b      	ldr	r1, [pc, #364]	; (80028ac <HAL_RCCEx_PeriphCLKConfig+0x9e8>)
 800273e:	6aca      	ldr	r2, [r1, #44]	; 0x2c
 8002740:	f442 3200 	orr.w	r2, r2, #131072	; 0x20000
 8002744:	62ca      	str	r2, [r1, #44]	; 0x2c
 8002746:	2d00      	cmp	r5, #0
 8002748:	f47f ad3b 	bne.w	80021c2 <HAL_RCCEx_PeriphCLKConfig+0x2fe>
 800274c:	e7c7      	b.n	80026de <HAL_RCCEx_PeriphCLKConfig+0x81a>
 800274e:	2101      	movs	r1, #1
 8002750:	f104 0024 	add.w	r0, r4, #36	; 0x24
 8002754:	f7ff fb3a 	bl	8001dcc <RCCEx_PLL3_Config>
 8002758:	4605      	mov	r5, r0
 800275a:	6823      	ldr	r3, [r4, #0]
 800275c:	2d00      	cmp	r5, #0
 800275e:	d1bc      	bne.n	80026da <HAL_RCCEx_PeriphCLKConfig+0x816>
 8002760:	e4b9      	b.n	80020d6 <HAL_RCCEx_PeriphCLKConfig+0x212>
 8002762:	2102      	movs	r1, #2
 8002764:	f104 0024 	add.w	r0, r4, #36	; 0x24
 8002768:	f7ff fb30 	bl	8001dcc <RCCEx_PLL3_Config>
 800276c:	4605      	mov	r5, r0
 800276e:	6823      	ldr	r3, [r4, #0]
 8002770:	2d00      	cmp	r5, #0
 8002772:	d1c2      	bne.n	80026fa <HAL_RCCEx_PeriphCLKConfig+0x836>
 8002774:	e5f0      	b.n	8002358 <HAL_RCCEx_PeriphCLKConfig+0x494>
 8002776:	2102      	movs	r1, #2
 8002778:	f104 0024 	add.w	r0, r4, #36	; 0x24
 800277c:	f7ff fb26 	bl	8001dcc <RCCEx_PLL3_Config>
 8002780:	4605      	mov	r5, r0
 8002782:	6823      	ldr	r3, [r4, #0]
 8002784:	2d00      	cmp	r5, #0
 8002786:	d1b6      	bne.n	80026f6 <HAL_RCCEx_PeriphCLKConfig+0x832>
 8002788:	e5c6      	b.n	8002318 <HAL_RCCEx_PeriphCLKConfig+0x454>
 800278a:	4948      	ldr	r1, [pc, #288]	; (80028ac <HAL_RCCEx_PeriphCLKConfig+0x9e8>)
 800278c:	6aca      	ldr	r2, [r1, #44]	; 0x2c
 800278e:	f442 3200 	orr.w	r2, r2, #131072	; 0x20000
 8002792:	62ca      	str	r2, [r1, #44]	; 0x2c
 8002794:	2d00      	cmp	r5, #0
 8002796:	d18d      	bne.n	80026b4 <HAL_RCCEx_PeriphCLKConfig+0x7f0>
 8002798:	e6a9      	b.n	80024ee <HAL_RCCEx_PeriphCLKConfig+0x62a>
 800279a:	2102      	movs	r1, #2
 800279c:	f104 0024 	add.w	r0, r4, #36	; 0x24
 80027a0:	f7ff fb14 	bl	8001dcc <RCCEx_PLL3_Config>
 80027a4:	4605      	mov	r5, r0
 80027a6:	6823      	ldr	r3, [r4, #0]
 80027a8:	2d00      	cmp	r5, #0
 80027aa:	d1a8      	bne.n	80026fe <HAL_RCCEx_PeriphCLKConfig+0x83a>
 80027ac:	e594      	b.n	80022d8 <HAL_RCCEx_PeriphCLKConfig+0x414>
 80027ae:	2101      	movs	r1, #1
 80027b0:	f104 0024 	add.w	r0, r4, #36	; 0x24
 80027b4:	f7ff fb0a 	bl	8001dcc <RCCEx_PLL3_Config>
 80027b8:	4605      	mov	r5, r0
 80027ba:	6823      	ldr	r3, [r4, #0]
 80027bc:	2d00      	cmp	r5, #0
 80027be:	d198      	bne.n	80026f2 <HAL_RCCEx_PeriphCLKConfig+0x82e>
 80027c0:	e46c      	b.n	800209c <HAL_RCCEx_PeriphCLKConfig+0x1d8>
 80027c2:	2102      	movs	r1, #2
 80027c4:	f104 0024 	add.w	r0, r4, #36	; 0x24
 80027c8:	f7ff fb00 	bl	8001dcc <RCCEx_PLL3_Config>
 80027cc:	f8d4 1080 	ldr.w	r1, [r4, #128]	; 0x80
 80027d0:	b100      	cbz	r0, 80027d4 <HAL_RCCEx_PeriphCLKConfig+0x910>
 80027d2:	2601      	movs	r6, #1
 80027d4:	6823      	ldr	r3, [r4, #0]
 80027d6:	e5cf      	b.n	8002378 <HAL_RCCEx_PeriphCLKConfig+0x4b4>
 80027d8:	2100      	movs	r1, #0
 80027da:	f104 0024 	add.w	r0, r4, #36	; 0x24
 80027de:	f7ff faf5 	bl	8001dcc <RCCEx_PLL3_Config>
 80027e2:	6823      	ldr	r3, [r4, #0]
 80027e4:	4605      	mov	r5, r0
 80027e6:	e439      	b.n	800205c <HAL_RCCEx_PeriphCLKConfig+0x198>
 80027e8:	2100      	movs	r1, #0
 80027ea:	f104 0024 	add.w	r0, r4, #36	; 0x24
 80027ee:	f7ff faed 	bl	8001dcc <RCCEx_PLL3_Config>
 80027f2:	6823      	ldr	r3, [r4, #0]
 80027f4:	4605      	mov	r5, r0
 80027f6:	f7ff bbb2 	b.w	8001f5e <HAL_RCCEx_PeriphCLKConfig+0x9a>
 80027fa:	492c      	ldr	r1, [pc, #176]	; (80028ac <HAL_RCCEx_PeriphCLKConfig+0x9e8>)
 80027fc:	4635      	mov	r5, r6
 80027fe:	6aca      	ldr	r2, [r1, #44]	; 0x2c
 8002800:	f442 3200 	orr.w	r2, r2, #131072	; 0x20000
 8002804:	62ca      	str	r2, [r1, #44]	; 0x2c
 8002806:	e65e      	b.n	80024c6 <HAL_RCCEx_PeriphCLKConfig+0x602>
 8002808:	2100      	movs	r1, #0
 800280a:	1d20      	adds	r0, r4, #4
 800280c:	f7ff fa62 	bl	8001cd4 <RCCEx_PLL2_Config>
 8002810:	6823      	ldr	r3, [r4, #0]
 8002812:	4605      	mov	r5, r0
 8002814:	e657      	b.n	80024c6 <HAL_RCCEx_PeriphCLKConfig+0x602>
 8002816:	2100      	movs	r1, #0
 8002818:	f104 0024 	add.w	r0, r4, #36	; 0x24
 800281c:	f7ff fad6 	bl	8001dcc <RCCEx_PLL3_Config>
 8002820:	6823      	ldr	r3, [r4, #0]
 8002822:	4605      	mov	r5, r0
 8002824:	f7ff bbbc 	b.w	8001fa0 <HAL_RCCEx_PeriphCLKConfig+0xdc>
 8002828:	2100      	movs	r1, #0
 800282a:	f104 0024 	add.w	r0, r4, #36	; 0x24
 800282e:	f7ff facd 	bl	8001dcc <RCCEx_PLL3_Config>
 8002832:	6823      	ldr	r3, [r4, #0]
 8002834:	4605      	mov	r5, r0
 8002836:	e646      	b.n	80024c6 <HAL_RCCEx_PeriphCLKConfig+0x602>
 8002838:	6823      	ldr	r3, [r4, #0]
 800283a:	f7ff bb67 	b.w	8001f0c <HAL_RCCEx_PeriphCLKConfig+0x48>
 800283e:	2100      	movs	r1, #0
 8002840:	f104 0024 	add.w	r0, r4, #36	; 0x24
 8002844:	f7ff fac2 	bl	8001dcc <RCCEx_PLL3_Config>
 8002848:	6823      	ldr	r3, [r4, #0]
 800284a:	4605      	mov	r5, r0
 800284c:	f7ff bbca 	b.w	8001fe4 <HAL_RCCEx_PeriphCLKConfig+0x120>
 8002850:	2102      	movs	r1, #2
 8002852:	3024      	adds	r0, #36	; 0x24
 8002854:	f7ff faba 	bl	8001dcc <RCCEx_PLL3_Config>
 8002858:	4606      	mov	r6, r0
 800285a:	2e00      	cmp	r6, #0
 800285c:	f43f ab4d 	beq.w	8001efa <HAL_RCCEx_PeriphCLKConfig+0x36>
 8002860:	e7ea      	b.n	8002838 <HAL_RCCEx_PeriphCLKConfig+0x974>
 8002862:	2101      	movs	r1, #1
 8002864:	1d20      	adds	r0, r4, #4
 8002866:	f7ff fa35 	bl	8001cd4 <RCCEx_PLL2_Config>
 800286a:	4605      	mov	r5, r0
 800286c:	6823      	ldr	r3, [r4, #0]
 800286e:	2d00      	cmp	r5, #0
 8002870:	f47f acff 	bne.w	8002272 <HAL_RCCEx_PeriphCLKConfig+0x3ae>
 8002874:	e729      	b.n	80026ca <HAL_RCCEx_PeriphCLKConfig+0x806>
 8002876:	2101      	movs	r1, #1
 8002878:	1d20      	adds	r0, r4, #4
 800287a:	f7ff fa2b 	bl	8001cd4 <RCCEx_PLL2_Config>
 800287e:	4605      	mov	r5, r0
 8002880:	6823      	ldr	r3, [r4, #0]
 8002882:	2d00      	cmp	r5, #0
 8002884:	f47f ad0f 	bne.w	80022a6 <HAL_RCCEx_PeriphCLKConfig+0x3e2>
 8002888:	e716      	b.n	80026b8 <HAL_RCCEx_PeriphCLKConfig+0x7f4>
 800288a:	2101      	movs	r1, #1
 800288c:	1d20      	adds	r0, r4, #4
 800288e:	f7ff fa21 	bl	8001cd4 <RCCEx_PLL2_Config>
 8002892:	4605      	mov	r5, r0
 8002894:	6823      	ldr	r3, [r4, #0]
 8002896:	2d00      	cmp	r5, #0
 8002898:	f47f acd2 	bne.w	8002240 <HAL_RCCEx_PeriphCLKConfig+0x37c>
 800289c:	e73b      	b.n	8002716 <HAL_RCCEx_PeriphCLKConfig+0x852>
 800289e:	2603      	movs	r6, #3
 80028a0:	6823      	ldr	r3, [r4, #0]
 80028a2:	4635      	mov	r5, r6
 80028a4:	e491      	b.n	80021ca <HAL_RCCEx_PeriphCLKConfig+0x306>
 80028a6:	bf00      	nop
 80028a8:	58024800 	.word	0x58024800
 80028ac:	58024400 	.word	0x58024400
 80028b0:	492d      	ldr	r1, [pc, #180]	; (8002968 <HAL_RCCEx_PeriphCLKConfig+0xaa4>)
 80028b2:	6aca      	ldr	r2, [r1, #44]	; 0x2c
 80028b4:	f442 3200 	orr.w	r2, r2, #131072	; 0x20000
 80028b8:	62ca      	str	r2, [r1, #44]	; 0x2c
 80028ba:	2d00      	cmp	r5, #0
 80028bc:	f47f af33 	bne.w	8002726 <HAL_RCCEx_PeriphCLKConfig+0x862>
 80028c0:	e5a4      	b.n	800240c <HAL_RCCEx_PeriphCLKConfig+0x548>
 80028c2:	4829      	ldr	r0, [pc, #164]	; (8002968 <HAL_RCCEx_PeriphCLKConfig+0xaa4>)
 80028c4:	6ac1      	ldr	r1, [r0, #44]	; 0x2c
 80028c6:	f441 3100 	orr.w	r1, r1, #131072	; 0x20000
 80028ca:	62c1      	str	r1, [r0, #44]	; 0x2c
 80028cc:	2d00      	cmp	r5, #0
 80028ce:	f47f adf4 	bne.w	80024ba <HAL_RCCEx_PeriphCLKConfig+0x5f6>
 80028d2:	e625      	b.n	8002520 <HAL_RCCEx_PeriphCLKConfig+0x65c>
 80028d4:	1d20      	adds	r0, r4, #4
 80028d6:	f7ff f9fd 	bl	8001cd4 <RCCEx_PLL2_Config>
 80028da:	4605      	mov	r5, r0
 80028dc:	6823      	ldr	r3, [r4, #0]
 80028de:	2d00      	cmp	r5, #0
 80028e0:	f47f af0f 	bne.w	8002702 <HAL_RCCEx_PeriphCLKConfig+0x83e>
 80028e4:	e660      	b.n	80025a8 <HAL_RCCEx_PeriphCLKConfig+0x6e4>
 80028e6:	4920      	ldr	r1, [pc, #128]	; (8002968 <HAL_RCCEx_PeriphCLKConfig+0xaa4>)
 80028e8:	6aca      	ldr	r2, [r1, #44]	; 0x2c
 80028ea:	f442 3200 	orr.w	r2, r2, #131072	; 0x20000
 80028ee:	62ca      	str	r2, [r1, #44]	; 0x2c
 80028f0:	2d00      	cmp	r5, #0
 80028f2:	f47f af0b 	bne.w	800270c <HAL_RCCEx_PeriphCLKConfig+0x848>
 80028f6:	e641      	b.n	800257c <HAL_RCCEx_PeriphCLKConfig+0x6b8>
 80028f8:	2102      	movs	r1, #2
 80028fa:	f104 0024 	add.w	r0, r4, #36	; 0x24
 80028fe:	f7ff fa65 	bl	8001dcc <RCCEx_PLL3_Config>
 8002902:	f8d4 1094 	ldr.w	r1, [r4, #148]	; 0x94
 8002906:	b100      	cbz	r0, 800290a <HAL_RCCEx_PeriphCLKConfig+0xa46>
 8002908:	2601      	movs	r6, #1
 800290a:	6823      	ldr	r3, [r4, #0]
 800290c:	e542      	b.n	8002394 <HAL_RCCEx_PeriphCLKConfig+0x4d0>
 800290e:	f7fe f871 	bl	80009f4 <HAL_GetTick>
 8002912:	f8df 8054 	ldr.w	r8, [pc, #84]	; 8002968 <HAL_RCCEx_PeriphCLKConfig+0xaa4>
 8002916:	f241 3988 	movw	r9, #5000	; 0x1388
 800291a:	4607      	mov	r7, r0
 800291c:	e004      	b.n	8002928 <HAL_RCCEx_PeriphCLKConfig+0xa64>
 800291e:	f7fe f869 	bl	80009f4 <HAL_GetTick>
 8002922:	1bc0      	subs	r0, r0, r7
 8002924:	4548      	cmp	r0, r9
 8002926:	d8ba      	bhi.n	800289e <HAL_RCCEx_PeriphCLKConfig+0x9da>
 8002928:	f8d8 3070 	ldr.w	r3, [r8, #112]	; 0x70
 800292c:	079b      	lsls	r3, r3, #30
 800292e:	d5f6      	bpl.n	800291e <HAL_RCCEx_PeriphCLKConfig+0xa5a>
 8002930:	f8d4 30b0 	ldr.w	r3, [r4, #176]	; 0xb0
 8002934:	e680      	b.n	8002638 <HAL_RCCEx_PeriphCLKConfig+0x774>
 8002936:	480c      	ldr	r0, [pc, #48]	; (8002968 <HAL_RCCEx_PeriphCLKConfig+0xaa4>)
 8002938:	4a0c      	ldr	r2, [pc, #48]	; (800296c <HAL_RCCEx_PeriphCLKConfig+0xaa8>)
 800293a:	6901      	ldr	r1, [r0, #16]
 800293c:	ea02 1213 	and.w	r2, r2, r3, lsr #4
 8002940:	f421 517c 	bic.w	r1, r1, #16128	; 0x3f00
 8002944:	430a      	orrs	r2, r1
 8002946:	6102      	str	r2, [r0, #16]
 8002948:	e681      	b.n	800264e <HAL_RCCEx_PeriphCLKConfig+0x78a>
 800294a:	6823      	ldr	r3, [r4, #0]
 800294c:	462e      	mov	r6, r5
 800294e:	e43c      	b.n	80021ca <HAL_RCCEx_PeriphCLKConfig+0x306>
 8002950:	2601      	movs	r6, #1
 8002952:	f7ff baef 	b.w	8001f34 <HAL_RCCEx_PeriphCLKConfig+0x70>
 8002956:	2601      	movs	r6, #1
 8002958:	4635      	mov	r5, r6
 800295a:	e48b      	b.n	8002274 <HAL_RCCEx_PeriphCLKConfig+0x3b0>
 800295c:	2601      	movs	r6, #1
 800295e:	4635      	mov	r5, r6
 8002960:	e430      	b.n	80021c4 <HAL_RCCEx_PeriphCLKConfig+0x300>
 8002962:	2601      	movs	r6, #1
 8002964:	4635      	mov	r5, r6
 8002966:	e49f      	b.n	80022a8 <HAL_RCCEx_PeriphCLKConfig+0x3e4>
 8002968:	58024400 	.word	0x58024400
 800296c:	00ffffcf 	.word	0x00ffffcf

08002970 <HAL_RCCEx_GetPLL2ClockFreq>:
 8002970:	4b4f      	ldr	r3, [pc, #316]	; (8002ab0 <HAL_RCCEx_GetPLL2ClockFreq+0x140>)
 8002972:	b470      	push	{r4, r5, r6}
 8002974:	6a99      	ldr	r1, [r3, #40]	; 0x28
 8002976:	6a9d      	ldr	r5, [r3, #40]	; 0x28
 8002978:	6adc      	ldr	r4, [r3, #44]	; 0x2c
 800297a:	f415 3f7c 	tst.w	r5, #258048	; 0x3f000
 800297e:	f3c5 3205 	ubfx	r2, r5, #12, #6
 8002982:	6bde      	ldr	r6, [r3, #60]	; 0x3c
 8002984:	d05c      	beq.n	8002a40 <HAL_RCCEx_GetPLL2ClockFreq+0xd0>
 8002986:	f3c6 06cc 	ubfx	r6, r6, #3, #13
 800298a:	f3c4 1400 	ubfx	r4, r4, #4, #1
 800298e:	f001 0103 	and.w	r1, r1, #3
 8002992:	fb04 f406 	mul.w	r4, r4, r6
 8002996:	2901      	cmp	r1, #1
 8002998:	ee07 4a90 	vmov	s15, r4
 800299c:	eeb8 7ae7 	vcvt.f32.s32	s14, s15
 80029a0:	d003      	beq.n	80029aa <HAL_RCCEx_GetPLL2ClockFreq+0x3a>
 80029a2:	2902      	cmp	r1, #2
 80029a4:	d075      	beq.n	8002a92 <HAL_RCCEx_GetPLL2ClockFreq+0x122>
 80029a6:	2900      	cmp	r1, #0
 80029a8:	d04f      	beq.n	8002a4a <HAL_RCCEx_GetPLL2ClockFreq+0xda>
 80029aa:	ee07 2a90 	vmov	s15, r2
 80029ae:	eddf 6a41 	vldr	s13, [pc, #260]	; 8002ab4 <HAL_RCCEx_GetPLL2ClockFreq+0x144>
 80029b2:	eef8 7ae7 	vcvt.f32.s32	s15, s15
 80029b6:	6b9b      	ldr	r3, [r3, #56]	; 0x38
 80029b8:	ee86 6aa7 	vdiv.f32	s12, s13, s15
 80029bc:	eddf 5a3e 	vldr	s11, [pc, #248]	; 8002ab8 <HAL_RCCEx_GetPLL2ClockFreq+0x148>
 80029c0:	f3c3 0308 	ubfx	r3, r3, #0, #9
 80029c4:	ee06 3a90 	vmov	s13, r3
 80029c8:	eeb7 5a00 	vmov.f32	s10, #112	; 0x3f800000  1.0
 80029cc:	eef8 6ae6 	vcvt.f32.s32	s13, s13
 80029d0:	ee76 6a85 	vadd.f32	s13, s13, s10
 80029d4:	eee7 6a25 	vfma.f32	s13, s14, s11
 80029d8:	ee66 6a26 	vmul.f32	s13, s12, s13
 80029dc:	4a34      	ldr	r2, [pc, #208]	; (8002ab0 <HAL_RCCEx_GetPLL2ClockFreq+0x140>)
 80029de:	eeb7 6a00 	vmov.f32	s12, #112	; 0x3f800000  1.0
 80029e2:	6b93      	ldr	r3, [r2, #56]	; 0x38
 80029e4:	f3c3 2346 	ubfx	r3, r3, #9, #7
 80029e8:	ee07 3a10 	vmov	s14, r3
 80029ec:	eeb8 7ac7 	vcvt.f32.s32	s14, s14
 80029f0:	bc70      	pop	{r4, r5, r6}
 80029f2:	ee37 7a06 	vadd.f32	s14, s14, s12
 80029f6:	eec6 7a87 	vdiv.f32	s15, s13, s14
 80029fa:	eefc 7ae7 	vcvt.u32.f32	s15, s15
 80029fe:	edc0 7a00 	vstr	s15, [r0]
 8002a02:	6b93      	ldr	r3, [r2, #56]	; 0x38
 8002a04:	f3c3 4306 	ubfx	r3, r3, #16, #7
 8002a08:	ee07 3a10 	vmov	s14, r3
 8002a0c:	eeb8 7ac7 	vcvt.f32.s32	s14, s14
 8002a10:	ee37 7a06 	vadd.f32	s14, s14, s12
 8002a14:	eec6 7a87 	vdiv.f32	s15, s13, s14
 8002a18:	eefc 7ae7 	vcvt.u32.f32	s15, s15
 8002a1c:	edc0 7a01 	vstr	s15, [r0, #4]
 8002a20:	6b93      	ldr	r3, [r2, #56]	; 0x38
 8002a22:	f3c3 6306 	ubfx	r3, r3, #24, #7
 8002a26:	ee07 3a90 	vmov	s15, r3
 8002a2a:	eef8 7ae7 	vcvt.f32.s32	s15, s15
 8002a2e:	ee77 7a86 	vadd.f32	s15, s15, s12
 8002a32:	ee86 7aa7 	vdiv.f32	s14, s13, s15
 8002a36:	eebc 7ac7 	vcvt.u32.f32	s14, s14
 8002a3a:	ed80 7a02 	vstr	s14, [r0, #8]
 8002a3e:	4770      	bx	lr
 8002a40:	bc70      	pop	{r4, r5, r6}
 8002a42:	e9c0 2200 	strd	r2, r2, [r0]
 8002a46:	6082      	str	r2, [r0, #8]
 8002a48:	4770      	bx	lr
 8002a4a:	6819      	ldr	r1, [r3, #0]
 8002a4c:	0689      	lsls	r1, r1, #26
 8002a4e:	d527      	bpl.n	8002aa0 <HAL_RCCEx_GetPLL2ClockFreq+0x130>
 8002a50:	6819      	ldr	r1, [r3, #0]
 8002a52:	ee07 2a90 	vmov	s15, r2
 8002a56:	4a19      	ldr	r2, [pc, #100]	; (8002abc <HAL_RCCEx_GetPLL2ClockFreq+0x14c>)
 8002a58:	eef7 4a00 	vmov.f32	s9, #112	; 0x3f800000  1.0
 8002a5c:	f3c1 01c1 	ubfx	r1, r1, #3, #2
 8002a60:	eef8 7ae7 	vcvt.f32.s32	s15, s15
 8002a64:	6b9b      	ldr	r3, [r3, #56]	; 0x38
 8002a66:	40ca      	lsrs	r2, r1
 8002a68:	ed9f 5a13 	vldr	s10, [pc, #76]	; 8002ab8 <HAL_RCCEx_GetPLL2ClockFreq+0x148>
 8002a6c:	f3c3 0308 	ubfx	r3, r3, #0, #9
 8002a70:	ee06 2a10 	vmov	s12, r2
 8002a74:	ee06 3a90 	vmov	s13, r3
 8002a78:	eef8 5ac6 	vcvt.f32.s32	s11, s12
 8002a7c:	eef8 6ae6 	vcvt.f32.s32	s13, s13
 8002a80:	ee85 6aa7 	vdiv.f32	s12, s11, s15
 8002a84:	ee76 6aa4 	vadd.f32	s13, s13, s9
 8002a88:	eee7 6a05 	vfma.f32	s13, s14, s10
 8002a8c:	ee66 6a26 	vmul.f32	s13, s12, s13
 8002a90:	e7a4      	b.n	80029dc <HAL_RCCEx_GetPLL2ClockFreq+0x6c>
 8002a92:	ee07 2a90 	vmov	s15, r2
 8002a96:	eddf 6a0a 	vldr	s13, [pc, #40]	; 8002ac0 <HAL_RCCEx_GetPLL2ClockFreq+0x150>
 8002a9a:	eef8 7ae7 	vcvt.f32.s32	s15, s15
 8002a9e:	e78a      	b.n	80029b6 <HAL_RCCEx_GetPLL2ClockFreq+0x46>
 8002aa0:	ee07 2a90 	vmov	s15, r2
 8002aa4:	eddf 6a07 	vldr	s13, [pc, #28]	; 8002ac4 <HAL_RCCEx_GetPLL2ClockFreq+0x154>
 8002aa8:	eef8 7ae7 	vcvt.f32.s32	s15, s15
 8002aac:	e783      	b.n	80029b6 <HAL_RCCEx_GetPLL2ClockFreq+0x46>
 8002aae:	bf00      	nop
 8002ab0:	58024400 	.word	0x58024400
 8002ab4:	4a742400 	.word	0x4a742400
 8002ab8:	39000000 	.word	0x39000000
 8002abc:	03d09000 	.word	0x03d09000
 8002ac0:	4bbebc20 	.word	0x4bbebc20
 8002ac4:	4c742400 	.word	0x4c742400

08002ac8 <HAL_RCCEx_GetPLL3ClockFreq>:
 8002ac8:	4b4f      	ldr	r3, [pc, #316]	; (8002c08 <HAL_RCCEx_GetPLL3ClockFreq+0x140>)
 8002aca:	b470      	push	{r4, r5, r6}
 8002acc:	6a99      	ldr	r1, [r3, #40]	; 0x28
 8002ace:	6a9d      	ldr	r5, [r3, #40]	; 0x28
 8002ad0:	6adc      	ldr	r4, [r3, #44]	; 0x2c
 8002ad2:	f015 7f7c 	tst.w	r5, #66060288	; 0x3f00000
 8002ad6:	f3c5 5205 	ubfx	r2, r5, #20, #6
 8002ada:	6c5e      	ldr	r6, [r3, #68]	; 0x44
 8002adc:	d05c      	beq.n	8002b98 <HAL_RCCEx_GetPLL3ClockFreq+0xd0>
 8002ade:	f3c6 06cc 	ubfx	r6, r6, #3, #13
 8002ae2:	f3c4 2400 	ubfx	r4, r4, #8, #1
 8002ae6:	f001 0103 	and.w	r1, r1, #3
 8002aea:	fb04 f406 	mul.w	r4, r4, r6
 8002aee:	2901      	cmp	r1, #1
 8002af0:	ee07 4a90 	vmov	s15, r4
 8002af4:	eeb8 7ae7 	vcvt.f32.s32	s14, s15
 8002af8:	d003      	beq.n	8002b02 <HAL_RCCEx_GetPLL3ClockFreq+0x3a>
 8002afa:	2902      	cmp	r1, #2
 8002afc:	d075      	beq.n	8002bea <HAL_RCCEx_GetPLL3ClockFreq+0x122>
 8002afe:	2900      	cmp	r1, #0
 8002b00:	d04f      	beq.n	8002ba2 <HAL_RCCEx_GetPLL3ClockFreq+0xda>
 8002b02:	ee07 2a90 	vmov	s15, r2
 8002b06:	eddf 6a41 	vldr	s13, [pc, #260]	; 8002c0c <HAL_RCCEx_GetPLL3ClockFreq+0x144>
 8002b0a:	eef8 7ae7 	vcvt.f32.s32	s15, s15
 8002b0e:	6c1b      	ldr	r3, [r3, #64]	; 0x40
 8002b10:	ee86 6aa7 	vdiv.f32	s12, s13, s15
 8002b14:	eddf 5a3e 	vldr	s11, [pc, #248]	; 8002c10 <HAL_RCCEx_GetPLL3ClockFreq+0x148>
 8002b18:	f3c3 0308 	ubfx	r3, r3, #0, #9
 8002b1c:	ee06 3a90 	vmov	s13, r3
 8002b20:	eeb7 5a00 	vmov.f32	s10, #112	; 0x3f800000  1.0
 8002b24:	eef8 6ae6 	vcvt.f32.s32	s13, s13
 8002b28:	ee76 6a85 	vadd.f32	s13, s13, s10
 8002b2c:	eee7 6a25 	vfma.f32	s13, s14, s11
 8002b30:	ee66 6a26 	vmul.f32	s13, s12, s13
 8002b34:	4a34      	ldr	r2, [pc, #208]	; (8002c08 <HAL_RCCEx_GetPLL3ClockFreq+0x140>)
 8002b36:	eeb7 6a00 	vmov.f32	s12, #112	; 0x3f800000  1.0
 8002b3a:	6c13      	ldr	r3, [r2, #64]	; 0x40
 8002b3c:	f3c3 2346 	ubfx	r3, r3, #9, #7
 8002b40:	ee07 3a10 	vmov	s14, r3
 8002b44:	eeb8 7ac7 	vcvt.f32.s32	s14, s14
 8002b48:	bc70      	pop	{r4, r5, r6}
 8002b4a:	ee37 7a06 	vadd.f32	s14, s14, s12
 8002b4e:	eec6 7a87 	vdiv.f32	s15, s13, s14
 8002b52:	eefc 7ae7 	vcvt.u32.f32	s15, s15
 8002b56:	edc0 7a00 	vstr	s15, [r0]
 8002b5a:	6c13      	ldr	r3, [r2, #64]	; 0x40
 8002b5c:	f3c3 4306 	ubfx	r3, r3, #16, #7
 8002b60:	ee07 3a10 	vmov	s14, r3
 8002b64:	eeb8 7ac7 	vcvt.f32.s32	s14, s14
 8002b68:	ee37 7a06 	vadd.f32	s14, s14, s12
 8002b6c:	eec6 7a87 	vdiv.f32	s15, s13, s14
 8002b70:	eefc 7ae7 	vcvt.u32.f32	s15, s15
 8002b74:	edc0 7a01 	vstr	s15, [r0, #4]
 8002b78:	6c13      	ldr	r3, [r2, #64]	; 0x40
 8002b7a:	f3c3 6306 	ubfx	r3, r3, #24, #7
 8002b7e:	ee07 3a90 	vmov	s15, r3
 8002b82:	eef8 7ae7 	vcvt.f32.s32	s15, s15
 8002b86:	ee77 7a86 	vadd.f32	s15, s15, s12
 8002b8a:	ee86 7aa7 	vdiv.f32	s14, s13, s15
 8002b8e:	eebc 7ac7 	vcvt.u32.f32	s14, s14
 8002b92:	ed80 7a02 	vstr	s14, [r0, #8]
 8002b96:	4770      	bx	lr
 8002b98:	bc70      	pop	{r4, r5, r6}
 8002b9a:	e9c0 2200 	strd	r2, r2, [r0]
 8002b9e:	6082      	str	r2, [r0, #8]
 8002ba0:	4770      	bx	lr
 8002ba2:	6819      	ldr	r1, [r3, #0]
 8002ba4:	0689      	lsls	r1, r1, #26
 8002ba6:	d527      	bpl.n	8002bf8 <HAL_RCCEx_GetPLL3ClockFreq+0x130>
 8002ba8:	6819      	ldr	r1, [r3, #0]
 8002baa:	ee07 2a90 	vmov	s15, r2
 8002bae:	4a19      	ldr	r2, [pc, #100]	; (8002c14 <HAL_RCCEx_GetPLL3ClockFreq+0x14c>)
 8002bb0:	eef7 4a00 	vmov.f32	s9, #112	; 0x3f800000  1.0
 8002bb4:	f3c1 01c1 	ubfx	r1, r1, #3, #2
 8002bb8:	eef8 7ae7 	vcvt.f32.s32	s15, s15
 8002bbc:	6c1b      	ldr	r3, [r3, #64]	; 0x40
 8002bbe:	40ca      	lsrs	r2, r1
 8002bc0:	ed9f 5a13 	vldr	s10, [pc, #76]	; 8002c10 <HAL_RCCEx_GetPLL3ClockFreq+0x148>
 8002bc4:	f3c3 0308 	ubfx	r3, r3, #0, #9
 8002bc8:	ee06 2a10 	vmov	s12, r2
 8002bcc:	ee06 3a90 	vmov	s13, r3
 8002bd0:	eef8 5ac6 	vcvt.f32.s32	s11, s12
 8002bd4:	eef8 6ae6 	vcvt.f32.s32	s13, s13
 8002bd8:	ee85 6aa7 	vdiv.f32	s12, s11, s15
 8002bdc:	ee76 6aa4 	vadd.f32	s13, s13, s9
 8002be0:	eee7 6a05 	vfma.f32	s13, s14, s10
 8002be4:	ee66 6a26 	vmul.f32	s13, s12, s13
 8002be8:	e7a4      	b.n	8002b34 <HAL_RCCEx_GetPLL3ClockFreq+0x6c>
 8002bea:	ee07 2a90 	vmov	s15, r2
 8002bee:	eddf 6a0a 	vldr	s13, [pc, #40]	; 8002c18 <HAL_RCCEx_GetPLL3ClockFreq+0x150>
 8002bf2:	eef8 7ae7 	vcvt.f32.s32	s15, s15
 8002bf6:	e78a      	b.n	8002b0e <HAL_RCCEx_GetPLL3ClockFreq+0x46>
 8002bf8:	ee07 2a90 	vmov	s15, r2
 8002bfc:	eddf 6a07 	vldr	s13, [pc, #28]	; 8002c1c <HAL_RCCEx_GetPLL3ClockFreq+0x154>
 8002c00:	eef8 7ae7 	vcvt.f32.s32	s15, s15
 8002c04:	e783      	b.n	8002b0e <HAL_RCCEx_GetPLL3ClockFreq+0x46>
 8002c06:	bf00      	nop
 8002c08:	58024400 	.word	0x58024400
 8002c0c:	4a742400 	.word	0x4a742400
 8002c10:	39000000 	.word	0x39000000
 8002c14:	03d09000 	.word	0x03d09000
 8002c18:	4bbebc20 	.word	0x4bbebc20
 8002c1c:	4c742400 	.word	0x4c742400

08002c20 <HAL_RCCEx_GetPLL1ClockFreq>:
 8002c20:	4b4f      	ldr	r3, [pc, #316]	; (8002d60 <HAL_RCCEx_GetPLL1ClockFreq+0x140>)
 8002c22:	b470      	push	{r4, r5, r6}
 8002c24:	6a99      	ldr	r1, [r3, #40]	; 0x28
 8002c26:	6a9d      	ldr	r5, [r3, #40]	; 0x28
 8002c28:	6adc      	ldr	r4, [r3, #44]	; 0x2c
 8002c2a:	f415 7f7c 	tst.w	r5, #1008	; 0x3f0
 8002c2e:	f3c5 1205 	ubfx	r2, r5, #4, #6
 8002c32:	6b5e      	ldr	r6, [r3, #52]	; 0x34
 8002c34:	d05c      	beq.n	8002cf0 <HAL_RCCEx_GetPLL1ClockFreq+0xd0>
 8002c36:	f3c6 06cc 	ubfx	r6, r6, #3, #13
 8002c3a:	f004 0401 	and.w	r4, r4, #1
 8002c3e:	f001 0103 	and.w	r1, r1, #3
 8002c42:	fb04 f406 	mul.w	r4, r4, r6
 8002c46:	2901      	cmp	r1, #1
 8002c48:	ee07 4a90 	vmov	s15, r4
 8002c4c:	eeb8 7ae7 	vcvt.f32.s32	s14, s15
 8002c50:	d07e      	beq.n	8002d50 <HAL_RCCEx_GetPLL1ClockFreq+0x130>
 8002c52:	2902      	cmp	r1, #2
 8002c54:	d075      	beq.n	8002d42 <HAL_RCCEx_GetPLL1ClockFreq+0x122>
 8002c56:	2900      	cmp	r1, #0
 8002c58:	d04f      	beq.n	8002cfa <HAL_RCCEx_GetPLL1ClockFreq+0xda>
 8002c5a:	ee07 2a90 	vmov	s15, r2
 8002c5e:	eddf 6a41 	vldr	s13, [pc, #260]	; 8002d64 <HAL_RCCEx_GetPLL1ClockFreq+0x144>
 8002c62:	eef8 7ae7 	vcvt.f32.s32	s15, s15
 8002c66:	6b1b      	ldr	r3, [r3, #48]	; 0x30
 8002c68:	ee86 6aa7 	vdiv.f32	s12, s13, s15
 8002c6c:	eddf 5a3e 	vldr	s11, [pc, #248]	; 8002d68 <HAL_RCCEx_GetPLL1ClockFreq+0x148>
 8002c70:	f3c3 0308 	ubfx	r3, r3, #0, #9
 8002c74:	ee06 3a90 	vmov	s13, r3
 8002c78:	eeb7 5a00 	vmov.f32	s10, #112	; 0x3f800000  1.0
 8002c7c:	eef8 6ae6 	vcvt.f32.s32	s13, s13
 8002c80:	ee76 6a85 	vadd.f32	s13, s13, s10
 8002c84:	eee7 6a25 	vfma.f32	s13, s14, s11
 8002c88:	ee66 6a26 	vmul.f32	s13, s12, s13
 8002c8c:	4a34      	ldr	r2, [pc, #208]	; (8002d60 <HAL_RCCEx_GetPLL1ClockFreq+0x140>)
 8002c8e:	eeb7 6a00 	vmov.f32	s12, #112	; 0x3f800000  1.0
 8002c92:	6b13      	ldr	r3, [r2, #48]	; 0x30
 8002c94:	f3c3 2346 	ubfx	r3, r3, #9, #7
 8002c98:	ee07 3a10 	vmov	s14, r3
 8002c9c:	eeb8 7ac7 	vcvt.f32.s32	s14, s14
 8002ca0:	bc70      	pop	{r4, r5, r6}
 8002ca2:	ee37 7a06 	vadd.f32	s14, s14, s12
 8002ca6:	eec6 7a87 	vdiv.f32	s15, s13, s14
 8002caa:	eefc 7ae7 	vcvt.u32.f32	s15, s15
 8002cae:	edc0 7a00 	vstr	s15, [r0]
 8002cb2:	6b13      	ldr	r3, [r2, #48]	; 0x30
 8002cb4:	f3c3 4306 	ubfx	r3, r3, #16, #7
 8002cb8:	ee07 3a10 	vmov	s14, r3
 8002cbc:	eeb8 7ac7 	vcvt.f32.s32	s14, s14
 8002cc0:	ee37 7a06 	vadd.f32	s14, s14, s12
 8002cc4:	eec6 7a87 	vdiv.f32	s15, s13, s14
 8002cc8:	eefc 7ae7 	vcvt.u32.f32	s15, s15
 8002ccc:	edc0 7a01 	vstr	s15, [r0, #4]
 8002cd0:	6b13      	ldr	r3, [r2, #48]	; 0x30
 8002cd2:	f3c3 6306 	ubfx	r3, r3, #24, #7
 8002cd6:	ee07 3a90 	vmov	s15, r3
 8002cda:	eef8 7ae7 	vcvt.f32.s32	s15, s15
 8002cde:	ee77 7a86 	vadd.f32	s15, s15, s12
 8002ce2:	ee86 7aa7 	vdiv.f32	s14, s13, s15
 8002ce6:	eebc 7ac7 	vcvt.u32.f32	s14, s14
 8002cea:	ed80 7a02 	vstr	s14, [r0, #8]
 8002cee:	4770      	bx	lr
 8002cf0:	bc70      	pop	{r4, r5, r6}
 8002cf2:	e9c0 2200 	strd	r2, r2, [r0]
 8002cf6:	6082      	str	r2, [r0, #8]
 8002cf8:	4770      	bx	lr
 8002cfa:	6819      	ldr	r1, [r3, #0]
 8002cfc:	0689      	lsls	r1, r1, #26
 8002cfe:	d5ac      	bpl.n	8002c5a <HAL_RCCEx_GetPLL1ClockFreq+0x3a>
 8002d00:	6819      	ldr	r1, [r3, #0]
 8002d02:	ee07 2a90 	vmov	s15, r2
 8002d06:	4a19      	ldr	r2, [pc, #100]	; (8002d6c <HAL_RCCEx_GetPLL1ClockFreq+0x14c>)
 8002d08:	eef7 4a00 	vmov.f32	s9, #112	; 0x3f800000  1.0
 8002d0c:	f3c1 01c1 	ubfx	r1, r1, #3, #2
 8002d10:	eef8 7ae7 	vcvt.f32.s32	s15, s15
 8002d14:	6b1b      	ldr	r3, [r3, #48]	; 0x30
 8002d16:	40ca      	lsrs	r2, r1
 8002d18:	ed9f 5a13 	vldr	s10, [pc, #76]	; 8002d68 <HAL_RCCEx_GetPLL1ClockFreq+0x148>
 8002d1c:	f3c3 0308 	ubfx	r3, r3, #0, #9
 8002d20:	ee06 2a10 	vmov	s12, r2
 8002d24:	ee06 3a90 	vmov	s13, r3
 8002d28:	eef8 5ac6 	vcvt.f32.s32	s11, s12
 8002d2c:	eef8 6ae6 	vcvt.f32.s32	s13, s13
 8002d30:	ee85 6aa7 	vdiv.f32	s12, s11, s15
 8002d34:	ee76 6aa4 	vadd.f32	s13, s13, s9
 8002d38:	eee7 6a05 	vfma.f32	s13, s14, s10
 8002d3c:	ee66 6a26 	vmul.f32	s13, s12, s13
 8002d40:	e7a4      	b.n	8002c8c <HAL_RCCEx_GetPLL1ClockFreq+0x6c>
 8002d42:	ee07 2a90 	vmov	s15, r2
 8002d46:	eddf 6a0a 	vldr	s13, [pc, #40]	; 8002d70 <HAL_RCCEx_GetPLL1ClockFreq+0x150>
 8002d4a:	eef8 7ae7 	vcvt.f32.s32	s15, s15
 8002d4e:	e78a      	b.n	8002c66 <HAL_RCCEx_GetPLL1ClockFreq+0x46>
 8002d50:	ee07 2a90 	vmov	s15, r2
 8002d54:	eddf 6a07 	vldr	s13, [pc, #28]	; 8002d74 <HAL_RCCEx_GetPLL1ClockFreq+0x154>
 8002d58:	eef8 7ae7 	vcvt.f32.s32	s15, s15
 8002d5c:	e783      	b.n	8002c66 <HAL_RCCEx_GetPLL1ClockFreq+0x46>
 8002d5e:	bf00      	nop
 8002d60:	58024400 	.word	0x58024400
 8002d64:	4c742400 	.word	0x4c742400
 8002d68:	39000000 	.word	0x39000000
 8002d6c:	03d09000 	.word	0x03d09000
 8002d70:	4bbebc20 	.word	0x4bbebc20
 8002d74:	4a742400 	.word	0x4a742400

08002d78 <HAL_RCCEx_GetPeriphCLKFreq>:
 8002d78:	f5b0 7f80 	cmp.w	r0, #256	; 0x100
 8002d7c:	b500      	push	{lr}
 8002d7e:	b085      	sub	sp, #20
 8002d80:	d077      	beq.n	8002e72 <HAL_RCCEx_GetPeriphCLKFreq+0xfa>
 8002d82:	f5b0 7f00 	cmp.w	r0, #512	; 0x200
 8002d86:	d02e      	beq.n	8002de6 <HAL_RCCEx_GetPeriphCLKFreq+0x6e>
 8002d88:	f5b0 6f80 	cmp.w	r0, #1024	; 0x400
 8002d8c:	f000 80cf 	beq.w	8002f2e <HAL_RCCEx_GetPeriphCLKFreq+0x1b6>
 8002d90:	f5b0 6f00 	cmp.w	r0, #2048	; 0x800
 8002d94:	f000 8080 	beq.w	8002e98 <HAL_RCCEx_GetPeriphCLKFreq+0x120>
 8002d98:	f5b0 5f80 	cmp.w	r0, #4096	; 0x1000
 8002d9c:	d05a      	beq.n	8002e54 <HAL_RCCEx_GetPeriphCLKFreq+0xdc>
 8002d9e:	f5b0 2f00 	cmp.w	r0, #524288	; 0x80000
 8002da2:	f000 8105 	beq.w	8002fb0 <HAL_RCCEx_GetPeriphCLKFreq+0x238>
 8002da6:	f5b0 3f80 	cmp.w	r0, #65536	; 0x10000
 8002daa:	f000 8110 	beq.w	8002fce <HAL_RCCEx_GetPeriphCLKFreq+0x256>
 8002dae:	f5b0 4f80 	cmp.w	r0, #16384	; 0x4000
 8002db2:	f000 80e2 	beq.w	8002f7a <HAL_RCCEx_GetPeriphCLKFreq+0x202>
 8002db6:	f5b0 4f00 	cmp.w	r0, #32768	; 0x8000
 8002dba:	d13a      	bne.n	8002e32 <HAL_RCCEx_GetPeriphCLKFreq+0xba>
 8002dbc:	4ba9      	ldr	r3, [pc, #676]	; (8003064 <HAL_RCCEx_GetPeriphCLKFreq+0x2ec>)
 8002dbe:	6d1b      	ldr	r3, [r3, #80]	; 0x50
 8002dc0:	f003 5340 	and.w	r3, r3, #805306368	; 0x30000000
 8002dc4:	f1b3 5f80 	cmp.w	r3, #268435456	; 0x10000000
 8002dc8:	f000 808e 	beq.w	8002ee8 <HAL_RCCEx_GetPeriphCLKFreq+0x170>
 8002dcc:	f1b3 5f00 	cmp.w	r3, #536870912	; 0x20000000
 8002dd0:	f000 812e 	beq.w	8003030 <HAL_RCCEx_GetPeriphCLKFreq+0x2b8>
 8002dd4:	bb6b      	cbnz	r3, 8002e32 <HAL_RCCEx_GetPeriphCLKFreq+0xba>
 8002dd6:	4aa3      	ldr	r2, [pc, #652]	; (8003064 <HAL_RCCEx_GetPeriphCLKFreq+0x2ec>)
 8002dd8:	4ba3      	ldr	r3, [pc, #652]	; (8003068 <HAL_RCCEx_GetPeriphCLKFreq+0x2f0>)
 8002dda:	6810      	ldr	r0, [r2, #0]
 8002ddc:	f410 3000 	ands.w	r0, r0, #131072	; 0x20000
 8002de0:	bf18      	it	ne
 8002de2:	4618      	movne	r0, r3
 8002de4:	e042      	b.n	8002e6c <HAL_RCCEx_GetPeriphCLKFreq+0xf4>
 8002de6:	4a9f      	ldr	r2, [pc, #636]	; (8003064 <HAL_RCCEx_GetPeriphCLKFreq+0x2ec>)
 8002de8:	6d13      	ldr	r3, [r2, #80]	; 0x50
 8002dea:	f403 73e0 	and.w	r3, r3, #448	; 0x1c0
 8002dee:	2b80      	cmp	r3, #128	; 0x80
 8002df0:	f000 8098 	beq.w	8002f24 <HAL_RCCEx_GetPeriphCLKFreq+0x1ac>
 8002df4:	d921      	bls.n	8002e3a <HAL_RCCEx_GetPeriphCLKFreq+0xc2>
 8002df6:	2bc0      	cmp	r3, #192	; 0xc0
 8002df8:	d037      	beq.n	8002e6a <HAL_RCCEx_GetPeriphCLKFreq+0xf2>
 8002dfa:	f5b3 7f80 	cmp.w	r3, #256	; 0x100
 8002dfe:	d118      	bne.n	8002e32 <HAL_RCCEx_GetPeriphCLKFreq+0xba>
 8002e00:	6cd3      	ldr	r3, [r2, #76]	; 0x4c
 8002e02:	6811      	ldr	r1, [r2, #0]
 8002e04:	f003 5340 	and.w	r3, r3, #805306368	; 0x30000000
 8002e08:	0749      	lsls	r1, r1, #29
 8002e0a:	d502      	bpl.n	8002e12 <HAL_RCCEx_GetPeriphCLKFreq+0x9a>
 8002e0c:	2b00      	cmp	r3, #0
 8002e0e:	f000 80ae 	beq.w	8002f6e <HAL_RCCEx_GetPeriphCLKFreq+0x1f6>
 8002e12:	4a94      	ldr	r2, [pc, #592]	; (8003064 <HAL_RCCEx_GetPeriphCLKFreq+0x2ec>)
 8002e14:	6812      	ldr	r2, [r2, #0]
 8002e16:	05d0      	lsls	r0, r2, #23
 8002e18:	d503      	bpl.n	8002e22 <HAL_RCCEx_GetPeriphCLKFreq+0xaa>
 8002e1a:	f1b3 5f80 	cmp.w	r3, #268435456	; 0x10000000
 8002e1e:	f000 80fb 	beq.w	8003018 <HAL_RCCEx_GetPeriphCLKFreq+0x2a0>
 8002e22:	4a90      	ldr	r2, [pc, #576]	; (8003064 <HAL_RCCEx_GetPeriphCLKFreq+0x2ec>)
 8002e24:	6812      	ldr	r2, [r2, #0]
 8002e26:	0391      	lsls	r1, r2, #14
 8002e28:	d503      	bpl.n	8002e32 <HAL_RCCEx_GetPeriphCLKFreq+0xba>
 8002e2a:	f1b3 5f00 	cmp.w	r3, #536870912	; 0x20000000
 8002e2e:	f000 80bd 	beq.w	8002fac <HAL_RCCEx_GetPeriphCLKFreq+0x234>
 8002e32:	2000      	movs	r0, #0
 8002e34:	b005      	add	sp, #20
 8002e36:	f85d fb04 	ldr.w	pc, [sp], #4
 8002e3a:	2b00      	cmp	r3, #0
 8002e3c:	d04b      	beq.n	8002ed6 <HAL_RCCEx_GetPeriphCLKFreq+0x15e>
 8002e3e:	2b40      	cmp	r3, #64	; 0x40
 8002e40:	d1f7      	bne.n	8002e32 <HAL_RCCEx_GetPeriphCLKFreq+0xba>
 8002e42:	6810      	ldr	r0, [r2, #0]
 8002e44:	f010 6000 	ands.w	r0, r0, #134217728	; 0x8000000
 8002e48:	d010      	beq.n	8002e6c <HAL_RCCEx_GetPeriphCLKFreq+0xf4>
 8002e4a:	a801      	add	r0, sp, #4
 8002e4c:	f7ff fd90 	bl	8002970 <HAL_RCCEx_GetPLL2ClockFreq>
 8002e50:	9801      	ldr	r0, [sp, #4]
 8002e52:	e00b      	b.n	8002e6c <HAL_RCCEx_GetPeriphCLKFreq+0xf4>
 8002e54:	4a83      	ldr	r2, [pc, #524]	; (8003064 <HAL_RCCEx_GetPeriphCLKFreq+0x2ec>)
 8002e56:	6d13      	ldr	r3, [r2, #80]	; 0x50
 8002e58:	f403 43e0 	and.w	r3, r3, #28672	; 0x7000
 8002e5c:	f5b3 5f00 	cmp.w	r3, #8192	; 0x2000
 8002e60:	d060      	beq.n	8002f24 <HAL_RCCEx_GetPeriphCLKFreq+0x1ac>
 8002e62:	d936      	bls.n	8002ed2 <HAL_RCCEx_GetPeriphCLKFreq+0x15a>
 8002e64:	f5b3 5f40 	cmp.w	r3, #12288	; 0x3000
 8002e68:	d178      	bne.n	8002f5c <HAL_RCCEx_GetPeriphCLKFreq+0x1e4>
 8002e6a:	4880      	ldr	r0, [pc, #512]	; (800306c <HAL_RCCEx_GetPeriphCLKFreq+0x2f4>)
 8002e6c:	b005      	add	sp, #20
 8002e6e:	f85d fb04 	ldr.w	pc, [sp], #4
 8002e72:	4b7c      	ldr	r3, [pc, #496]	; (8003064 <HAL_RCCEx_GetPeriphCLKFreq+0x2ec>)
 8002e74:	6d1b      	ldr	r3, [r3, #80]	; 0x50
 8002e76:	f003 0307 	and.w	r3, r3, #7
 8002e7a:	2b04      	cmp	r3, #4
 8002e7c:	d8d9      	bhi.n	8002e32 <HAL_RCCEx_GetPeriphCLKFreq+0xba>
 8002e7e:	a201      	add	r2, pc, #4	; (adr r2, 8002e84 <HAL_RCCEx_GetPeriphCLKFreq+0x10c>)
 8002e80:	f852 f023 	ldr.w	pc, [r2, r3, lsl #2]
 8002e84:	08002ee9 	.word	0x08002ee9
 8002e88:	08002f0d 	.word	0x08002f0d
 8002e8c:	08002ef9 	.word	0x08002ef9
 8002e90:	08002e6b 	.word	0x08002e6b
 8002e94:	08002ef5 	.word	0x08002ef5
 8002e98:	4a72      	ldr	r2, [pc, #456]	; (8003064 <HAL_RCCEx_GetPeriphCLKFreq+0x2ec>)
 8002e9a:	6d93      	ldr	r3, [r2, #88]	; 0x58
 8002e9c:	f003 63e0 	and.w	r3, r3, #117440512	; 0x7000000
 8002ea0:	f1b3 7f00 	cmp.w	r3, #33554432	; 0x2000000
 8002ea4:	d03e      	beq.n	8002f24 <HAL_RCCEx_GetPeriphCLKFreq+0x1ac>
 8002ea6:	d937      	bls.n	8002f18 <HAL_RCCEx_GetPeriphCLKFreq+0x1a0>
 8002ea8:	f1b3 7f40 	cmp.w	r3, #50331648	; 0x3000000
 8002eac:	d0dd      	beq.n	8002e6a <HAL_RCCEx_GetPeriphCLKFreq+0xf2>
 8002eae:	f1b3 6f80 	cmp.w	r3, #67108864	; 0x4000000
 8002eb2:	d1be      	bne.n	8002e32 <HAL_RCCEx_GetPeriphCLKFreq+0xba>
 8002eb4:	6cd3      	ldr	r3, [r2, #76]	; 0x4c
 8002eb6:	6812      	ldr	r2, [r2, #0]
 8002eb8:	f003 5340 	and.w	r3, r3, #805306368	; 0x30000000
 8002ebc:	0752      	lsls	r2, r2, #29
 8002ebe:	d5a8      	bpl.n	8002e12 <HAL_RCCEx_GetPeriphCLKFreq+0x9a>
 8002ec0:	2b00      	cmp	r3, #0
 8002ec2:	d1a6      	bne.n	8002e12 <HAL_RCCEx_GetPeriphCLKFreq+0x9a>
 8002ec4:	4b67      	ldr	r3, [pc, #412]	; (8003064 <HAL_RCCEx_GetPeriphCLKFreq+0x2ec>)
 8002ec6:	486a      	ldr	r0, [pc, #424]	; (8003070 <HAL_RCCEx_GetPeriphCLKFreq+0x2f8>)
 8002ec8:	681b      	ldr	r3, [r3, #0]
 8002eca:	f3c3 03c1 	ubfx	r3, r3, #3, #2
 8002ece:	40d8      	lsrs	r0, r3
 8002ed0:	e7cc      	b.n	8002e6c <HAL_RCCEx_GetPeriphCLKFreq+0xf4>
 8002ed2:	2b00      	cmp	r3, #0
 8002ed4:	d146      	bne.n	8002f64 <HAL_RCCEx_GetPeriphCLKFreq+0x1ec>
 8002ed6:	6810      	ldr	r0, [r2, #0]
 8002ed8:	f010 7000 	ands.w	r0, r0, #33554432	; 0x2000000
 8002edc:	d0c6      	beq.n	8002e6c <HAL_RCCEx_GetPeriphCLKFreq+0xf4>
 8002ede:	a801      	add	r0, sp, #4
 8002ee0:	f7ff fe9e 	bl	8002c20 <HAL_RCCEx_GetPLL1ClockFreq>
 8002ee4:	9802      	ldr	r0, [sp, #8]
 8002ee6:	e7c1      	b.n	8002e6c <HAL_RCCEx_GetPeriphCLKFreq+0xf4>
 8002ee8:	4b5e      	ldr	r3, [pc, #376]	; (8003064 <HAL_RCCEx_GetPeriphCLKFreq+0x2ec>)
 8002eea:	6818      	ldr	r0, [r3, #0]
 8002eec:	f010 7000 	ands.w	r0, r0, #33554432	; 0x2000000
 8002ef0:	d0bc      	beq.n	8002e6c <HAL_RCCEx_GetPeriphCLKFreq+0xf4>
 8002ef2:	e7f4      	b.n	8002ede <HAL_RCCEx_GetPeriphCLKFreq+0x166>
 8002ef4:	4a5b      	ldr	r2, [pc, #364]	; (8003064 <HAL_RCCEx_GetPeriphCLKFreq+0x2ec>)
 8002ef6:	e783      	b.n	8002e00 <HAL_RCCEx_GetPeriphCLKFreq+0x88>
 8002ef8:	4b5a      	ldr	r3, [pc, #360]	; (8003064 <HAL_RCCEx_GetPeriphCLKFreq+0x2ec>)
 8002efa:	6818      	ldr	r0, [r3, #0]
 8002efc:	f010 5000 	ands.w	r0, r0, #536870912	; 0x20000000
 8002f00:	d0b4      	beq.n	8002e6c <HAL_RCCEx_GetPeriphCLKFreq+0xf4>
 8002f02:	a801      	add	r0, sp, #4
 8002f04:	f7ff fde0 	bl	8002ac8 <HAL_RCCEx_GetPLL3ClockFreq>
 8002f08:	9801      	ldr	r0, [sp, #4]
 8002f0a:	e7af      	b.n	8002e6c <HAL_RCCEx_GetPeriphCLKFreq+0xf4>
 8002f0c:	4b55      	ldr	r3, [pc, #340]	; (8003064 <HAL_RCCEx_GetPeriphCLKFreq+0x2ec>)
 8002f0e:	6818      	ldr	r0, [r3, #0]
 8002f10:	f010 6000 	ands.w	r0, r0, #134217728	; 0x8000000
 8002f14:	d0aa      	beq.n	8002e6c <HAL_RCCEx_GetPeriphCLKFreq+0xf4>
 8002f16:	e798      	b.n	8002e4a <HAL_RCCEx_GetPeriphCLKFreq+0xd2>
 8002f18:	2b00      	cmp	r3, #0
 8002f1a:	d0dc      	beq.n	8002ed6 <HAL_RCCEx_GetPeriphCLKFreq+0x15e>
 8002f1c:	f1b3 7f80 	cmp.w	r3, #16777216	; 0x1000000
 8002f20:	d08f      	beq.n	8002e42 <HAL_RCCEx_GetPeriphCLKFreq+0xca>
 8002f22:	e786      	b.n	8002e32 <HAL_RCCEx_GetPeriphCLKFreq+0xba>
 8002f24:	6810      	ldr	r0, [r2, #0]
 8002f26:	f010 5000 	ands.w	r0, r0, #536870912	; 0x20000000
 8002f2a:	d09f      	beq.n	8002e6c <HAL_RCCEx_GetPeriphCLKFreq+0xf4>
 8002f2c:	e7e9      	b.n	8002f02 <HAL_RCCEx_GetPeriphCLKFreq+0x18a>
 8002f2e:	4a4d      	ldr	r2, [pc, #308]	; (8003064 <HAL_RCCEx_GetPeriphCLKFreq+0x2ec>)
 8002f30:	6d93      	ldr	r3, [r2, #88]	; 0x58
 8002f32:	f403 0360 	and.w	r3, r3, #14680064	; 0xe00000
 8002f36:	f5b3 0f80 	cmp.w	r3, #4194304	; 0x400000
 8002f3a:	d0f3      	beq.n	8002f24 <HAL_RCCEx_GetPeriphCLKFreq+0x1ac>
 8002f3c:	d806      	bhi.n	8002f4c <HAL_RCCEx_GetPeriphCLKFreq+0x1d4>
 8002f3e:	2b00      	cmp	r3, #0
 8002f40:	d0c9      	beq.n	8002ed6 <HAL_RCCEx_GetPeriphCLKFreq+0x15e>
 8002f42:	f5b3 1f00 	cmp.w	r3, #2097152	; 0x200000
 8002f46:	f43f af7c 	beq.w	8002e42 <HAL_RCCEx_GetPeriphCLKFreq+0xca>
 8002f4a:	e772      	b.n	8002e32 <HAL_RCCEx_GetPeriphCLKFreq+0xba>
 8002f4c:	f5b3 0fc0 	cmp.w	r3, #6291456	; 0x600000
 8002f50:	d08b      	beq.n	8002e6a <HAL_RCCEx_GetPeriphCLKFreq+0xf2>
 8002f52:	f5b3 0f00 	cmp.w	r3, #8388608	; 0x800000
 8002f56:	f43f af53 	beq.w	8002e00 <HAL_RCCEx_GetPeriphCLKFreq+0x88>
 8002f5a:	e76a      	b.n	8002e32 <HAL_RCCEx_GetPeriphCLKFreq+0xba>
 8002f5c:	f5b3 4f80 	cmp.w	r3, #16384	; 0x4000
 8002f60:	d0a8      	beq.n	8002eb4 <HAL_RCCEx_GetPeriphCLKFreq+0x13c>
 8002f62:	e766      	b.n	8002e32 <HAL_RCCEx_GetPeriphCLKFreq+0xba>
 8002f64:	f5b3 5f80 	cmp.w	r3, #4096	; 0x1000
 8002f68:	f43f af6b 	beq.w	8002e42 <HAL_RCCEx_GetPeriphCLKFreq+0xca>
 8002f6c:	e761      	b.n	8002e32 <HAL_RCCEx_GetPeriphCLKFreq+0xba>
 8002f6e:	6813      	ldr	r3, [r2, #0]
 8002f70:	483f      	ldr	r0, [pc, #252]	; (8003070 <HAL_RCCEx_GetPeriphCLKFreq+0x2f8>)
 8002f72:	f3c3 03c1 	ubfx	r3, r3, #3, #2
 8002f76:	40d8      	lsrs	r0, r3
 8002f78:	e778      	b.n	8002e6c <HAL_RCCEx_GetPeriphCLKFreq+0xf4>
 8002f7a:	4a3a      	ldr	r2, [pc, #232]	; (8003064 <HAL_RCCEx_GetPeriphCLKFreq+0x2ec>)
 8002f7c:	6d93      	ldr	r3, [r2, #88]	; 0x58
 8002f7e:	f003 43e0 	and.w	r3, r3, #1879048192	; 0x70000000
 8002f82:	f1b3 5f40 	cmp.w	r3, #805306368	; 0x30000000
 8002f86:	d066      	beq.n	8003056 <HAL_RCCEx_GetPeriphCLKFreq+0x2de>
 8002f88:	d82f      	bhi.n	8002fea <HAL_RCCEx_GetPeriphCLKFreq+0x272>
 8002f8a:	f1b3 5f80 	cmp.w	r3, #268435456	; 0x10000000
 8002f8e:	d04f      	beq.n	8003030 <HAL_RCCEx_GetPeriphCLKFreq+0x2b8>
 8002f90:	f1b3 5f00 	cmp.w	r3, #536870912	; 0x20000000
 8002f94:	d131      	bne.n	8002ffa <HAL_RCCEx_GetPeriphCLKFreq+0x282>
 8002f96:	4b33      	ldr	r3, [pc, #204]	; (8003064 <HAL_RCCEx_GetPeriphCLKFreq+0x2ec>)
 8002f98:	6818      	ldr	r0, [r3, #0]
 8002f9a:	f010 5000 	ands.w	r0, r0, #536870912	; 0x20000000
 8002f9e:	f43f af65 	beq.w	8002e6c <HAL_RCCEx_GetPeriphCLKFreq+0xf4>
 8002fa2:	a801      	add	r0, sp, #4
 8002fa4:	f7ff fd90 	bl	8002ac8 <HAL_RCCEx_GetPLL3ClockFreq>
 8002fa8:	9802      	ldr	r0, [sp, #8]
 8002faa:	e75f      	b.n	8002e6c <HAL_RCCEx_GetPeriphCLKFreq+0xf4>
 8002fac:	482e      	ldr	r0, [pc, #184]	; (8003068 <HAL_RCCEx_GetPeriphCLKFreq+0x2f0>)
 8002fae:	e75d      	b.n	8002e6c <HAL_RCCEx_GetPeriphCLKFreq+0xf4>
 8002fb0:	4a2c      	ldr	r2, [pc, #176]	; (8003064 <HAL_RCCEx_GetPeriphCLKFreq+0x2ec>)
 8002fb2:	6d93      	ldr	r3, [r2, #88]	; 0x58
 8002fb4:	f403 3340 	and.w	r3, r3, #196608	; 0x30000
 8002fb8:	f5b3 3f80 	cmp.w	r3, #65536	; 0x10000
 8002fbc:	d02e      	beq.n	800301c <HAL_RCCEx_GetPeriphCLKFreq+0x2a4>
 8002fbe:	f5b3 3f00 	cmp.w	r3, #131072	; 0x20000
 8002fc2:	f43f af77 	beq.w	8002eb4 <HAL_RCCEx_GetPeriphCLKFreq+0x13c>
 8002fc6:	2b00      	cmp	r3, #0
 8002fc8:	f47f af33 	bne.w	8002e32 <HAL_RCCEx_GetPeriphCLKFreq+0xba>
 8002fcc:	e739      	b.n	8002e42 <HAL_RCCEx_GetPeriphCLKFreq+0xca>
 8002fce:	4b25      	ldr	r3, [pc, #148]	; (8003064 <HAL_RCCEx_GetPeriphCLKFreq+0x2ec>)
 8002fd0:	6cda      	ldr	r2, [r3, #76]	; 0x4c
 8002fd2:	03d2      	lsls	r2, r2, #15
 8002fd4:	d589      	bpl.n	8002eea <HAL_RCCEx_GetPeriphCLKFreq+0x172>
 8002fd6:	6818      	ldr	r0, [r3, #0]
 8002fd8:	f010 6000 	ands.w	r0, r0, #134217728	; 0x8000000
 8002fdc:	f43f af46 	beq.w	8002e6c <HAL_RCCEx_GetPeriphCLKFreq+0xf4>
 8002fe0:	a801      	add	r0, sp, #4
 8002fe2:	f7ff fcc5 	bl	8002970 <HAL_RCCEx_GetPLL2ClockFreq>
 8002fe6:	9803      	ldr	r0, [sp, #12]
 8002fe8:	e740      	b.n	8002e6c <HAL_RCCEx_GetPeriphCLKFreq+0xf4>
 8002fea:	f1b3 4f80 	cmp.w	r3, #1073741824	; 0x40000000
 8002fee:	d02a      	beq.n	8003046 <HAL_RCCEx_GetPeriphCLKFreq+0x2ce>
 8002ff0:	f1b3 4fa0 	cmp.w	r3, #1342177280	; 0x50000000
 8002ff4:	f43f aeef 	beq.w	8002dd6 <HAL_RCCEx_GetPeriphCLKFreq+0x5e>
 8002ff8:	e71b      	b.n	8002e32 <HAL_RCCEx_GetPeriphCLKFreq+0xba>
 8002ffa:	2b00      	cmp	r3, #0
 8002ffc:	f47f af19 	bne.w	8002e32 <HAL_RCCEx_GetPeriphCLKFreq+0xba>
 8003000:	f7fe fe28 	bl	8001c54 <HAL_RCC_GetHCLKFreq>
 8003004:	4b17      	ldr	r3, [pc, #92]	; (8003064 <HAL_RCCEx_GetPeriphCLKFreq+0x2ec>)
 8003006:	4a1b      	ldr	r2, [pc, #108]	; (8003074 <HAL_RCCEx_GetPeriphCLKFreq+0x2fc>)
 8003008:	6a1b      	ldr	r3, [r3, #32]
 800300a:	f3c3 1302 	ubfx	r3, r3, #4, #3
 800300e:	5cd3      	ldrb	r3, [r2, r3]
 8003010:	f003 031f 	and.w	r3, r3, #31
 8003014:	40d8      	lsrs	r0, r3
 8003016:	e729      	b.n	8002e6c <HAL_RCCEx_GetPeriphCLKFreq+0xf4>
 8003018:	4817      	ldr	r0, [pc, #92]	; (8003078 <HAL_RCCEx_GetPeriphCLKFreq+0x300>)
 800301a:	e727      	b.n	8002e6c <HAL_RCCEx_GetPeriphCLKFreq+0xf4>
 800301c:	6810      	ldr	r0, [r2, #0]
 800301e:	f010 5000 	ands.w	r0, r0, #536870912	; 0x20000000
 8003022:	f43f af23 	beq.w	8002e6c <HAL_RCCEx_GetPeriphCLKFreq+0xf4>
 8003026:	a801      	add	r0, sp, #4
 8003028:	f7ff fd4e 	bl	8002ac8 <HAL_RCCEx_GetPLL3ClockFreq>
 800302c:	9803      	ldr	r0, [sp, #12]
 800302e:	e71d      	b.n	8002e6c <HAL_RCCEx_GetPeriphCLKFreq+0xf4>
 8003030:	4b0c      	ldr	r3, [pc, #48]	; (8003064 <HAL_RCCEx_GetPeriphCLKFreq+0x2ec>)
 8003032:	6818      	ldr	r0, [r3, #0]
 8003034:	f010 6000 	ands.w	r0, r0, #134217728	; 0x8000000
 8003038:	f43f af18 	beq.w	8002e6c <HAL_RCCEx_GetPeriphCLKFreq+0xf4>
 800303c:	a801      	add	r0, sp, #4
 800303e:	f7ff fc97 	bl	8002970 <HAL_RCCEx_GetPLL2ClockFreq>
 8003042:	9802      	ldr	r0, [sp, #8]
 8003044:	e712      	b.n	8002e6c <HAL_RCCEx_GetPeriphCLKFreq+0xf4>
 8003046:	4a07      	ldr	r2, [pc, #28]	; (8003064 <HAL_RCCEx_GetPeriphCLKFreq+0x2ec>)
 8003048:	4b0b      	ldr	r3, [pc, #44]	; (8003078 <HAL_RCCEx_GetPeriphCLKFreq+0x300>)
 800304a:	6810      	ldr	r0, [r2, #0]
 800304c:	f410 7080 	ands.w	r0, r0, #256	; 0x100
 8003050:	bf18      	it	ne
 8003052:	4618      	movne	r0, r3
 8003054:	e70a      	b.n	8002e6c <HAL_RCCEx_GetPeriphCLKFreq+0xf4>
 8003056:	6810      	ldr	r0, [r2, #0]
 8003058:	f010 0004 	ands.w	r0, r0, #4
 800305c:	f43f af06 	beq.w	8002e6c <HAL_RCCEx_GetPeriphCLKFreq+0xf4>
 8003060:	e730      	b.n	8002ec4 <HAL_RCCEx_GetPeriphCLKFreq+0x14c>
 8003062:	bf00      	nop
 8003064:	58024400 	.word	0x58024400
 8003068:	017d7840 	.word	0x017d7840
 800306c:	00bb8000 	.word	0x00bb8000
 8003070:	03d09000 	.word	0x03d09000
 8003074:	08004a58 	.word	0x08004a58
 8003078:	003d0900 	.word	0x003d0900

0800307c <TIM_OC1_SetConfig>:
 800307c:	6a02      	ldr	r2, [r0, #32]
 800307e:	f8d1 c008 	ldr.w	ip, [r1, #8]
 8003082:	f022 0201 	bic.w	r2, r2, #1
 8003086:	b4f0      	push	{r4, r5, r6, r7}
 8003088:	680d      	ldr	r5, [r1, #0]
 800308a:	4f19      	ldr	r7, [pc, #100]	; (80030f0 <TIM_OC1_SetConfig+0x74>)
 800308c:	6202      	str	r2, [r0, #32]
 800308e:	4e19      	ldr	r6, [pc, #100]	; (80030f4 <TIM_OC1_SetConfig+0x78>)
 8003090:	6a03      	ldr	r3, [r0, #32]
 8003092:	6844      	ldr	r4, [r0, #4]
 8003094:	42b0      	cmp	r0, r6
 8003096:	6982      	ldr	r2, [r0, #24]
 8003098:	f023 0302 	bic.w	r3, r3, #2
 800309c:	ea07 0702 	and.w	r7, r7, r2
 80030a0:	ea43 030c 	orr.w	r3, r3, ip
 80030a4:	ea45 0507 	orr.w	r5, r5, r7
 80030a8:	d00e      	beq.n	80030c8 <TIM_OC1_SetConfig+0x4c>
 80030aa:	4a13      	ldr	r2, [pc, #76]	; (80030f8 <TIM_OC1_SetConfig+0x7c>)
 80030ac:	4290      	cmp	r0, r2
 80030ae:	d00b      	beq.n	80030c8 <TIM_OC1_SetConfig+0x4c>
 80030b0:	f506 4680 	add.w	r6, r6, #16384	; 0x4000
 80030b4:	f502 4280 	add.w	r2, r2, #16384	; 0x4000
 80030b8:	4290      	cmp	r0, r2
 80030ba:	bf18      	it	ne
 80030bc:	42b0      	cmpne	r0, r6
 80030be:	d003      	beq.n	80030c8 <TIM_OC1_SetConfig+0x4c>
 80030c0:	f502 6280 	add.w	r2, r2, #1024	; 0x400
 80030c4:	4290      	cmp	r0, r2
 80030c6:	d10b      	bne.n	80030e0 <TIM_OC1_SetConfig+0x64>
 80030c8:	68ca      	ldr	r2, [r1, #12]
 80030ca:	f023 0308 	bic.w	r3, r3, #8
 80030ce:	698e      	ldr	r6, [r1, #24]
 80030d0:	f424 7440 	bic.w	r4, r4, #768	; 0x300
 80030d4:	4313      	orrs	r3, r2
 80030d6:	694a      	ldr	r2, [r1, #20]
 80030d8:	4332      	orrs	r2, r6
 80030da:	f023 0304 	bic.w	r3, r3, #4
 80030de:	4314      	orrs	r4, r2
 80030e0:	684a      	ldr	r2, [r1, #4]
 80030e2:	6044      	str	r4, [r0, #4]
 80030e4:	6185      	str	r5, [r0, #24]
 80030e6:	6342      	str	r2, [r0, #52]	; 0x34
 80030e8:	6203      	str	r3, [r0, #32]
 80030ea:	bcf0      	pop	{r4, r5, r6, r7}
 80030ec:	4770      	bx	lr
 80030ee:	bf00      	nop
 80030f0:	fffeff8c 	.word	0xfffeff8c
 80030f4:	40010000 	.word	0x40010000
 80030f8:	40010400 	.word	0x40010400

080030fc <TIM_OC3_SetConfig>:
 80030fc:	b4f0      	push	{r4, r5, r6, r7}
 80030fe:	6a04      	ldr	r4, [r0, #32]
 8003100:	f8d1 c008 	ldr.w	ip, [r1, #8]
 8003104:	f424 7480 	bic.w	r4, r4, #256	; 0x100
 8003108:	680f      	ldr	r7, [r1, #0]
 800310a:	4e19      	ldr	r6, [pc, #100]	; (8003170 <TIM_OC3_SetConfig+0x74>)
 800310c:	6204      	str	r4, [r0, #32]
 800310e:	6a03      	ldr	r3, [r0, #32]
 8003110:	42b0      	cmp	r0, r6
 8003112:	6845      	ldr	r5, [r0, #4]
 8003114:	69c2      	ldr	r2, [r0, #28]
 8003116:	f423 7300 	bic.w	r3, r3, #512	; 0x200
 800311a:	f022 0273 	bic.w	r2, r2, #115	; 0x73
 800311e:	ea43 230c 	orr.w	r3, r3, ip, lsl #8
 8003122:	ea42 0207 	orr.w	r2, r2, r7
 8003126:	d00d      	beq.n	8003144 <TIM_OC3_SetConfig+0x48>
 8003128:	4c12      	ldr	r4, [pc, #72]	; (8003174 <TIM_OC3_SetConfig+0x78>)
 800312a:	42a0      	cmp	r0, r4
 800312c:	d00a      	beq.n	8003144 <TIM_OC3_SetConfig+0x48>
 800312e:	4e12      	ldr	r6, [pc, #72]	; (8003178 <TIM_OC3_SetConfig+0x7c>)
 8003130:	4c12      	ldr	r4, [pc, #72]	; (800317c <TIM_OC3_SetConfig+0x80>)
 8003132:	42a0      	cmp	r0, r4
 8003134:	bf18      	it	ne
 8003136:	42b0      	cmpne	r0, r6
 8003138:	d00b      	beq.n	8003152 <TIM_OC3_SetConfig+0x56>
 800313a:	f504 6480 	add.w	r4, r4, #1024	; 0x400
 800313e:	42a0      	cmp	r0, r4
 8003140:	d10e      	bne.n	8003160 <TIM_OC3_SetConfig+0x64>
 8003142:	e006      	b.n	8003152 <TIM_OC3_SetConfig+0x56>
 8003144:	f423 6300 	bic.w	r3, r3, #2048	; 0x800
 8003148:	68cc      	ldr	r4, [r1, #12]
 800314a:	ea43 2304 	orr.w	r3, r3, r4, lsl #8
 800314e:	f423 6380 	bic.w	r3, r3, #1024	; 0x400
 8003152:	694c      	ldr	r4, [r1, #20]
 8003154:	f425 5540 	bic.w	r5, r5, #12288	; 0x3000
 8003158:	698e      	ldr	r6, [r1, #24]
 800315a:	4334      	orrs	r4, r6
 800315c:	ea45 1504 	orr.w	r5, r5, r4, lsl #4
 8003160:	6849      	ldr	r1, [r1, #4]
 8003162:	6045      	str	r5, [r0, #4]
 8003164:	61c2      	str	r2, [r0, #28]
 8003166:	63c1      	str	r1, [r0, #60]	; 0x3c
 8003168:	6203      	str	r3, [r0, #32]
 800316a:	bcf0      	pop	{r4, r5, r6, r7}
 800316c:	4770      	bx	lr
 800316e:	bf00      	nop
 8003170:	40010000 	.word	0x40010000
 8003174:	40010400 	.word	0x40010400
 8003178:	40014000 	.word	0x40014000
 800317c:	40014400 	.word	0x40014400

08003180 <HAL_TIM_Base_Init>:
 8003180:	2800      	cmp	r0, #0
 8003182:	f000 809c 	beq.w	80032be <HAL_TIM_Base_Init+0x13e>
 8003186:	b5f8      	push	{r3, r4, r5, r6, r7, lr}
 8003188:	f890 303d 	ldrb.w	r3, [r0, #61]	; 0x3d
 800318c:	4604      	mov	r4, r0
 800318e:	f003 02ff 	and.w	r2, r3, #255	; 0xff
 8003192:	2b00      	cmp	r3, #0
 8003194:	d075      	beq.n	8003282 <HAL_TIM_Base_Init+0x102>
 8003196:	6822      	ldr	r2, [r4, #0]
 8003198:	2302      	movs	r3, #2
 800319a:	494a      	ldr	r1, [pc, #296]	; (80032c4 <HAL_TIM_Base_Init+0x144>)
 800319c:	f1b2 4f80 	cmp.w	r2, #1073741824	; 0x40000000
 80031a0:	f884 303d 	strb.w	r3, [r4, #61]	; 0x3d
 80031a4:	eba2 0101 	sub.w	r1, r2, r1
 80031a8:	6813      	ldr	r3, [r2, #0]
 80031aa:	fab1 f181 	clz	r1, r1
 80031ae:	ea4f 1151 	mov.w	r1, r1, lsr #5
 80031b2:	d026      	beq.n	8003202 <HAL_TIM_Base_Init+0x82>
 80031b4:	bb29      	cbnz	r1, 8003202 <HAL_TIM_Base_Init+0x82>
 80031b6:	4844      	ldr	r0, [pc, #272]	; (80032c8 <HAL_TIM_Base_Init+0x148>)
 80031b8:	4282      	cmp	r2, r0
 80031ba:	d022      	beq.n	8003202 <HAL_TIM_Base_Init+0x82>
 80031bc:	f500 6080 	add.w	r0, r0, #1024	; 0x400
 80031c0:	4282      	cmp	r2, r0
 80031c2:	d01e      	beq.n	8003202 <HAL_TIM_Base_Init+0x82>
 80031c4:	4f41      	ldr	r7, [pc, #260]	; (80032cc <HAL_TIM_Base_Init+0x14c>)
 80031c6:	4d42      	ldr	r5, [pc, #264]	; (80032d0 <HAL_TIM_Base_Init+0x150>)
 80031c8:	1bd7      	subs	r7, r2, r7
 80031ca:	42aa      	cmp	r2, r5
 80031cc:	fab7 f787 	clz	r7, r7
 80031d0:	ea4f 1757 	mov.w	r7, r7, lsr #5
 80031d4:	d05a      	beq.n	800328c <HAL_TIM_Base_Init+0x10c>
 80031d6:	2f00      	cmp	r7, #0
 80031d8:	d158      	bne.n	800328c <HAL_TIM_Base_Init+0x10c>
 80031da:	483e      	ldr	r0, [pc, #248]	; (80032d4 <HAL_TIM_Base_Init+0x154>)
 80031dc:	493e      	ldr	r1, [pc, #248]	; (80032d8 <HAL_TIM_Base_Init+0x158>)
 80031de:	428a      	cmp	r2, r1
 80031e0:	bf18      	it	ne
 80031e2:	4282      	cmpne	r2, r0
 80031e4:	d05d      	beq.n	80032a2 <HAL_TIM_Base_Init+0x122>
 80031e6:	f501 6180 	add.w	r1, r1, #1024	; 0x400
 80031ea:	428a      	cmp	r2, r1
 80031ec:	d059      	beq.n	80032a2 <HAL_TIM_Base_Init+0x122>
 80031ee:	69a1      	ldr	r1, [r4, #24]
 80031f0:	f023 0380 	bic.w	r3, r3, #128	; 0x80
 80031f4:	68e0      	ldr	r0, [r4, #12]
 80031f6:	430b      	orrs	r3, r1
 80031f8:	6861      	ldr	r1, [r4, #4]
 80031fa:	6013      	str	r3, [r2, #0]
 80031fc:	62d0      	str	r0, [r2, #44]	; 0x2c
 80031fe:	6291      	str	r1, [r2, #40]	; 0x28
 8003200:	e023      	b.n	800324a <HAL_TIM_Base_Init+0xca>
 8003202:	4f32      	ldr	r7, [pc, #200]	; (80032cc <HAL_TIM_Base_Init+0x14c>)
 8003204:	f023 0370 	bic.w	r3, r3, #112	; 0x70
 8003208:	68a5      	ldr	r5, [r4, #8]
 800320a:	1bd7      	subs	r7, r2, r7
 800320c:	432b      	orrs	r3, r5
 800320e:	fab7 f787 	clz	r7, r7
 8003212:	097f      	lsrs	r7, r7, #5
 8003214:	6920      	ldr	r0, [r4, #16]
 8003216:	f423 7340 	bic.w	r3, r3, #768	; 0x300
 800321a:	69a5      	ldr	r5, [r4, #24]
 800321c:	4303      	orrs	r3, r0
 800321e:	68e6      	ldr	r6, [r4, #12]
 8003220:	6860      	ldr	r0, [r4, #4]
 8003222:	f023 0380 	bic.w	r3, r3, #128	; 0x80
 8003226:	432b      	orrs	r3, r5
 8003228:	6013      	str	r3, [r2, #0]
 800322a:	62d6      	str	r6, [r2, #44]	; 0x2c
 800322c:	6290      	str	r0, [r2, #40]	; 0x28
 800322e:	b951      	cbnz	r1, 8003246 <HAL_TIM_Base_Init+0xc6>
 8003230:	b94f      	cbnz	r7, 8003246 <HAL_TIM_Base_Init+0xc6>
 8003232:	4928      	ldr	r1, [pc, #160]	; (80032d4 <HAL_TIM_Base_Init+0x154>)
 8003234:	4b28      	ldr	r3, [pc, #160]	; (80032d8 <HAL_TIM_Base_Init+0x158>)
 8003236:	429a      	cmp	r2, r3
 8003238:	bf18      	it	ne
 800323a:	428a      	cmpne	r2, r1
 800323c:	d003      	beq.n	8003246 <HAL_TIM_Base_Init+0xc6>
 800323e:	f503 6380 	add.w	r3, r3, #1024	; 0x400
 8003242:	429a      	cmp	r2, r3
 8003244:	d101      	bne.n	800324a <HAL_TIM_Base_Init+0xca>
 8003246:	6963      	ldr	r3, [r4, #20]
 8003248:	6313      	str	r3, [r2, #48]	; 0x30
 800324a:	2301      	movs	r3, #1
 800324c:	2000      	movs	r0, #0
 800324e:	6153      	str	r3, [r2, #20]
 8003250:	f884 3048 	strb.w	r3, [r4, #72]	; 0x48
 8003254:	f884 303e 	strb.w	r3, [r4, #62]	; 0x3e
 8003258:	f884 303f 	strb.w	r3, [r4, #63]	; 0x3f
 800325c:	f884 3040 	strb.w	r3, [r4, #64]	; 0x40
 8003260:	f884 3041 	strb.w	r3, [r4, #65]	; 0x41
 8003264:	f884 3042 	strb.w	r3, [r4, #66]	; 0x42
 8003268:	f884 3043 	strb.w	r3, [r4, #67]	; 0x43
 800326c:	f884 3044 	strb.w	r3, [r4, #68]	; 0x44
 8003270:	f884 3045 	strb.w	r3, [r4, #69]	; 0x45
 8003274:	f884 3046 	strb.w	r3, [r4, #70]	; 0x46
 8003278:	f884 3047 	strb.w	r3, [r4, #71]	; 0x47
 800327c:	f884 303d 	strb.w	r3, [r4, #61]	; 0x3d
 8003280:	bdf8      	pop	{r3, r4, r5, r6, r7, pc}
 8003282:	f880 203c 	strb.w	r2, [r0, #60]	; 0x3c
 8003286:	f7fd fa37 	bl	80006f8 <HAL_TIM_Base_MspInit>
 800328a:	e784      	b.n	8003196 <HAL_TIM_Base_Init+0x16>
 800328c:	4810      	ldr	r0, [pc, #64]	; (80032d0 <HAL_TIM_Base_Init+0x150>)
 800328e:	f023 0370 	bic.w	r3, r3, #112	; 0x70
 8003292:	68a5      	ldr	r5, [r4, #8]
 8003294:	4282      	cmp	r2, r0
 8003296:	ea43 0305 	orr.w	r3, r3, r5
 800329a:	d0bb      	beq.n	8003214 <HAL_TIM_Base_Init+0x94>
 800329c:	2f00      	cmp	r7, #0
 800329e:	d1b9      	bne.n	8003214 <HAL_TIM_Base_Init+0x94>
 80032a0:	e79b      	b.n	80031da <HAL_TIM_Base_Init+0x5a>
 80032a2:	6921      	ldr	r1, [r4, #16]
 80032a4:	f423 7340 	bic.w	r3, r3, #768	; 0x300
 80032a8:	69a5      	ldr	r5, [r4, #24]
 80032aa:	430b      	orrs	r3, r1
 80032ac:	68e0      	ldr	r0, [r4, #12]
 80032ae:	6861      	ldr	r1, [r4, #4]
 80032b0:	f023 0380 	bic.w	r3, r3, #128	; 0x80
 80032b4:	432b      	orrs	r3, r5
 80032b6:	6013      	str	r3, [r2, #0]
 80032b8:	62d0      	str	r0, [r2, #44]	; 0x2c
 80032ba:	6291      	str	r1, [r2, #40]	; 0x28
 80032bc:	e7b9      	b.n	8003232 <HAL_TIM_Base_Init+0xb2>
 80032be:	2001      	movs	r0, #1
 80032c0:	4770      	bx	lr
 80032c2:	bf00      	nop
 80032c4:	40010000 	.word	0x40010000
 80032c8:	40000400 	.word	0x40000400
 80032cc:	40010400 	.word	0x40010400
 80032d0:	40000c00 	.word	0x40000c00
 80032d4:	40014000 	.word	0x40014000
 80032d8:	40014400 	.word	0x40014400

080032dc <HAL_TIM_Base_Start_IT>:
 80032dc:	f890 303d 	ldrb.w	r3, [r0, #61]	; 0x3d
 80032e0:	2b01      	cmp	r3, #1
 80032e2:	d13c      	bne.n	800335e <HAL_TIM_Base_Start_IT+0x82>
 80032e4:	6802      	ldr	r2, [r0, #0]
 80032e6:	4b23      	ldr	r3, [pc, #140]	; (8003374 <HAL_TIM_Base_Start_IT+0x98>)
 80032e8:	4923      	ldr	r1, [pc, #140]	; (8003378 <HAL_TIM_Base_Start_IT+0x9c>)
 80032ea:	f1b2 4f80 	cmp.w	r2, #1073741824	; 0x40000000
 80032ee:	bf18      	it	ne
 80032f0:	429a      	cmpne	r2, r3
 80032f2:	b430      	push	{r4, r5}
 80032f4:	bf0c      	ite	eq
 80032f6:	2301      	moveq	r3, #1
 80032f8:	2300      	movne	r3, #0
 80032fa:	4c20      	ldr	r4, [pc, #128]	; (800337c <HAL_TIM_Base_Start_IT+0xa0>)
 80032fc:	2502      	movs	r5, #2
 80032fe:	42a2      	cmp	r2, r4
 8003300:	bf08      	it	eq
 8003302:	f043 0301 	orreq.w	r3, r3, #1
 8003306:	f504 6400 	add.w	r4, r4, #2048	; 0x800
 800330a:	f880 503d 	strb.w	r5, [r0, #61]	; 0x3d
 800330e:	428a      	cmp	r2, r1
 8003310:	bf08      	it	eq
 8003312:	f043 0301 	orreq.w	r3, r3, #1
 8003316:	481a      	ldr	r0, [pc, #104]	; (8003380 <HAL_TIM_Base_Start_IT+0xa4>)
 8003318:	68d1      	ldr	r1, [r2, #12]
 800331a:	42a2      	cmp	r2, r4
 800331c:	bf08      	it	eq
 800331e:	f043 0301 	orreq.w	r3, r3, #1
 8003322:	f041 0101 	orr.w	r1, r1, #1
 8003326:	4282      	cmp	r2, r0
 8003328:	bf08      	it	eq
 800332a:	f043 0301 	orreq.w	r3, r3, #1
 800332e:	60d1      	str	r1, [r2, #12]
 8003330:	b933      	cbnz	r3, 8003340 <HAL_TIM_Base_Start_IT+0x64>
 8003332:	f5a0 406c 	sub.w	r0, r0, #60416	; 0xec00
 8003336:	1a10      	subs	r0, r2, r0
 8003338:	fab0 f080 	clz	r0, r0
 800333c:	0940      	lsrs	r0, r0, #5
 800333e:	b198      	cbz	r0, 8003368 <HAL_TIM_Base_Start_IT+0x8c>
 8003340:	6891      	ldr	r1, [r2, #8]
 8003342:	4b10      	ldr	r3, [pc, #64]	; (8003384 <HAL_TIM_Base_Start_IT+0xa8>)
 8003344:	400b      	ands	r3, r1
 8003346:	2b06      	cmp	r3, #6
 8003348:	d00b      	beq.n	8003362 <HAL_TIM_Base_Start_IT+0x86>
 800334a:	f5b3 3f80 	cmp.w	r3, #65536	; 0x10000
 800334e:	d008      	beq.n	8003362 <HAL_TIM_Base_Start_IT+0x86>
 8003350:	6813      	ldr	r3, [r2, #0]
 8003352:	2000      	movs	r0, #0
 8003354:	f043 0301 	orr.w	r3, r3, #1
 8003358:	6013      	str	r3, [r2, #0]
 800335a:	bc30      	pop	{r4, r5}
 800335c:	4770      	bx	lr
 800335e:	2001      	movs	r0, #1
 8003360:	4770      	bx	lr
 8003362:	2000      	movs	r0, #0
 8003364:	bc30      	pop	{r4, r5}
 8003366:	4770      	bx	lr
 8003368:	6813      	ldr	r3, [r2, #0]
 800336a:	f043 0301 	orr.w	r3, r3, #1
 800336e:	6013      	str	r3, [r2, #0]
 8003370:	e7f3      	b.n	800335a <HAL_TIM_Base_Start_IT+0x7e>
 8003372:	bf00      	nop
 8003374:	40010000 	.word	0x40010000
 8003378:	40000800 	.word	0x40000800
 800337c:	40000400 	.word	0x40000400
 8003380:	40010400 	.word	0x40010400
 8003384:	00010007 	.word	0x00010007

08003388 <HAL_TIM_OC_MspInit>:
 8003388:	4770      	bx	lr
 800338a:	bf00      	nop

0800338c <HAL_TIM_OC_Init>:
 800338c:	2800      	cmp	r0, #0
 800338e:	f000 809c 	beq.w	80034ca <HAL_TIM_OC_Init+0x13e>
 8003392:	b5f8      	push	{r3, r4, r5, r6, r7, lr}
 8003394:	f890 303d 	ldrb.w	r3, [r0, #61]	; 0x3d
 8003398:	4604      	mov	r4, r0
 800339a:	f003 02ff 	and.w	r2, r3, #255	; 0xff
 800339e:	2b00      	cmp	r3, #0
 80033a0:	d075      	beq.n	800348e <HAL_TIM_OC_Init+0x102>
 80033a2:	6822      	ldr	r2, [r4, #0]
 80033a4:	2302      	movs	r3, #2
 80033a6:	494a      	ldr	r1, [pc, #296]	; (80034d0 <HAL_TIM_OC_Init+0x144>)
 80033a8:	f1b2 4f80 	cmp.w	r2, #1073741824	; 0x40000000
 80033ac:	f884 303d 	strb.w	r3, [r4, #61]	; 0x3d
 80033b0:	eba2 0101 	sub.w	r1, r2, r1
 80033b4:	6813      	ldr	r3, [r2, #0]
 80033b6:	fab1 f181 	clz	r1, r1
 80033ba:	ea4f 1151 	mov.w	r1, r1, lsr #5
 80033be:	d026      	beq.n	800340e <HAL_TIM_OC_Init+0x82>
 80033c0:	bb29      	cbnz	r1, 800340e <HAL_TIM_OC_Init+0x82>
 80033c2:	4844      	ldr	r0, [pc, #272]	; (80034d4 <HAL_TIM_OC_Init+0x148>)
 80033c4:	4282      	cmp	r2, r0
 80033c6:	d022      	beq.n	800340e <HAL_TIM_OC_Init+0x82>
 80033c8:	f500 6080 	add.w	r0, r0, #1024	; 0x400
 80033cc:	4282      	cmp	r2, r0
 80033ce:	d01e      	beq.n	800340e <HAL_TIM_OC_Init+0x82>
 80033d0:	4f41      	ldr	r7, [pc, #260]	; (80034d8 <HAL_TIM_OC_Init+0x14c>)
 80033d2:	4d42      	ldr	r5, [pc, #264]	; (80034dc <HAL_TIM_OC_Init+0x150>)
 80033d4:	1bd7      	subs	r7, r2, r7
 80033d6:	42aa      	cmp	r2, r5
 80033d8:	fab7 f787 	clz	r7, r7
 80033dc:	ea4f 1757 	mov.w	r7, r7, lsr #5
 80033e0:	d05a      	beq.n	8003498 <HAL_TIM_OC_Init+0x10c>
 80033e2:	2f00      	cmp	r7, #0
 80033e4:	d158      	bne.n	8003498 <HAL_TIM_OC_Init+0x10c>
 80033e6:	483e      	ldr	r0, [pc, #248]	; (80034e0 <HAL_TIM_OC_Init+0x154>)
 80033e8:	493e      	ldr	r1, [pc, #248]	; (80034e4 <HAL_TIM_OC_Init+0x158>)
 80033ea:	428a      	cmp	r2, r1
 80033ec:	bf18      	it	ne
 80033ee:	4282      	cmpne	r2, r0
 80033f0:	d05d      	beq.n	80034ae <HAL_TIM_OC_Init+0x122>
 80033f2:	f501 6180 	add.w	r1, r1, #1024	; 0x400
 80033f6:	428a      	cmp	r2, r1
 80033f8:	d059      	beq.n	80034ae <HAL_TIM_OC_Init+0x122>
 80033fa:	69a1      	ldr	r1, [r4, #24]
 80033fc:	f023 0380 	bic.w	r3, r3, #128	; 0x80
 8003400:	68e0      	ldr	r0, [r4, #12]
 8003402:	430b      	orrs	r3, r1
 8003404:	6861      	ldr	r1, [r4, #4]
 8003406:	6013      	str	r3, [r2, #0]
 8003408:	62d0      	str	r0, [r2, #44]	; 0x2c
 800340a:	6291      	str	r1, [r2, #40]	; 0x28
 800340c:	e023      	b.n	8003456 <HAL_TIM_OC_Init+0xca>
 800340e:	4f32      	ldr	r7, [pc, #200]	; (80034d8 <HAL_TIM_OC_Init+0x14c>)
 8003410:	f023 0370 	bic.w	r3, r3, #112	; 0x70
 8003414:	68a5      	ldr	r5, [r4, #8]
 8003416:	1bd7      	subs	r7, r2, r7
 8003418:	432b      	orrs	r3, r5
 800341a:	fab7 f787 	clz	r7, r7
 800341e:	097f      	lsrs	r7, r7, #5
 8003420:	6920      	ldr	r0, [r4, #16]
 8003422:	f423 7340 	bic.w	r3, r3, #768	; 0x300
 8003426:	69a5      	ldr	r5, [r4, #24]
 8003428:	4303      	orrs	r3, r0
 800342a:	68e6      	ldr	r6, [r4, #12]
 800342c:	6860      	ldr	r0, [r4, #4]
 800342e:	f023 0380 	bic.w	r3, r3, #128	; 0x80
 8003432:	432b      	orrs	r3, r5
 8003434:	6013      	str	r3, [r2, #0]
 8003436:	62d6      	str	r6, [r2, #44]	; 0x2c
 8003438:	6290      	str	r0, [r2, #40]	; 0x28
 800343a:	b951      	cbnz	r1, 8003452 <HAL_TIM_OC_Init+0xc6>
 800343c:	b94f      	cbnz	r7, 8003452 <HAL_TIM_OC_Init+0xc6>
 800343e:	4928      	ldr	r1, [pc, #160]	; (80034e0 <HAL_TIM_OC_Init+0x154>)
 8003440:	4b28      	ldr	r3, [pc, #160]	; (80034e4 <HAL_TIM_OC_Init+0x158>)
 8003442:	429a      	cmp	r2, r3
 8003444:	bf18      	it	ne
 8003446:	428a      	cmpne	r2, r1
 8003448:	d003      	beq.n	8003452 <HAL_TIM_OC_Init+0xc6>
 800344a:	f503 6380 	add.w	r3, r3, #1024	; 0x400
 800344e:	429a      	cmp	r2, r3
 8003450:	d101      	bne.n	8003456 <HAL_TIM_OC_Init+0xca>
 8003452:	6963      	ldr	r3, [r4, #20]
 8003454:	6313      	str	r3, [r2, #48]	; 0x30
 8003456:	2301      	movs	r3, #1
 8003458:	2000      	movs	r0, #0
 800345a:	6153      	str	r3, [r2, #20]
 800345c:	f884 3048 	strb.w	r3, [r4, #72]	; 0x48
 8003460:	f884 303e 	strb.w	r3, [r4, #62]	; 0x3e
 8003464:	f884 303f 	strb.w	r3, [r4, #63]	; 0x3f
 8003468:	f884 3040 	strb.w	r3, [r4, #64]	; 0x40
 800346c:	f884 3041 	strb.w	r3, [r4, #65]	; 0x41
 8003470:	f884 3042 	strb.w	r3, [r4, #66]	; 0x42
 8003474:	f884 3043 	strb.w	r3, [r4, #67]	; 0x43
 8003478:	f884 3044 	strb.w	r3, [r4, #68]	; 0x44
 800347c:	f884 3045 	strb.w	r3, [r4, #69]	; 0x45
 8003480:	f884 3046 	strb.w	r3, [r4, #70]	; 0x46
 8003484:	f884 3047 	strb.w	r3, [r4, #71]	; 0x47
 8003488:	f884 303d 	strb.w	r3, [r4, #61]	; 0x3d
 800348c:	bdf8      	pop	{r3, r4, r5, r6, r7, pc}
 800348e:	f880 203c 	strb.w	r2, [r0, #60]	; 0x3c
 8003492:	f7ff ff79 	bl	8003388 <HAL_TIM_OC_MspInit>
 8003496:	e784      	b.n	80033a2 <HAL_TIM_OC_Init+0x16>
 8003498:	4810      	ldr	r0, [pc, #64]	; (80034dc <HAL_TIM_OC_Init+0x150>)
 800349a:	f023 0370 	bic.w	r3, r3, #112	; 0x70
 800349e:	68a5      	ldr	r5, [r4, #8]
 80034a0:	4282      	cmp	r2, r0
 80034a2:	ea43 0305 	orr.w	r3, r3, r5
 80034a6:	d0bb      	beq.n	8003420 <HAL_TIM_OC_Init+0x94>
 80034a8:	2f00      	cmp	r7, #0
 80034aa:	d1b9      	bne.n	8003420 <HAL_TIM_OC_Init+0x94>
 80034ac:	e79b      	b.n	80033e6 <HAL_TIM_OC_Init+0x5a>
 80034ae:	6921      	ldr	r1, [r4, #16]
 80034b0:	f423 7340 	bic.w	r3, r3, #768	; 0x300
 80034b4:	69a5      	ldr	r5, [r4, #24]
 80034b6:	430b      	orrs	r3, r1
 80034b8:	68e0      	ldr	r0, [r4, #12]
 80034ba:	6861      	ldr	r1, [r4, #4]
 80034bc:	f023 0380 	bic.w	r3, r3, #128	; 0x80
 80034c0:	432b      	orrs	r3, r5
 80034c2:	6013      	str	r3, [r2, #0]
 80034c4:	62d0      	str	r0, [r2, #44]	; 0x2c
 80034c6:	6291      	str	r1, [r2, #40]	; 0x28
 80034c8:	e7b9      	b.n	800343e <HAL_TIM_OC_Init+0xb2>
 80034ca:	2001      	movs	r0, #1
 80034cc:	4770      	bx	lr
 80034ce:	bf00      	nop
 80034d0:	40010000 	.word	0x40010000
 80034d4:	40000400 	.word	0x40000400
 80034d8:	40010400 	.word	0x40010400
 80034dc:	40000c00 	.word	0x40000c00
 80034e0:	40014000 	.word	0x40014000
 80034e4:	40014400 	.word	0x40014400

080034e8 <HAL_TIM_PWM_MspInit>:
 80034e8:	4770      	bx	lr
 80034ea:	bf00      	nop

080034ec <HAL_TIM_PWM_Init>:
 80034ec:	2800      	cmp	r0, #0
 80034ee:	f000 809c 	beq.w	800362a <HAL_TIM_PWM_Init+0x13e>
 80034f2:	b5f8      	push	{r3, r4, r5, r6, r7, lr}
 80034f4:	f890 303d 	ldrb.w	r3, [r0, #61]	; 0x3d
 80034f8:	4604      	mov	r4, r0
 80034fa:	f003 02ff 	and.w	r2, r3, #255	; 0xff
 80034fe:	2b00      	cmp	r3, #0
 8003500:	d075      	beq.n	80035ee <HAL_TIM_PWM_Init+0x102>
 8003502:	6822      	ldr	r2, [r4, #0]
 8003504:	2302      	movs	r3, #2
 8003506:	494a      	ldr	r1, [pc, #296]	; (8003630 <HAL_TIM_PWM_Init+0x144>)
 8003508:	f1b2 4f80 	cmp.w	r2, #1073741824	; 0x40000000
 800350c:	f884 303d 	strb.w	r3, [r4, #61]	; 0x3d
 8003510:	eba2 0101 	sub.w	r1, r2, r1
 8003514:	6813      	ldr	r3, [r2, #0]
 8003516:	fab1 f181 	clz	r1, r1
 800351a:	ea4f 1151 	mov.w	r1, r1, lsr #5
 800351e:	d026      	beq.n	800356e <HAL_TIM_PWM_Init+0x82>
 8003520:	bb29      	cbnz	r1, 800356e <HAL_TIM_PWM_Init+0x82>
 8003522:	4844      	ldr	r0, [pc, #272]	; (8003634 <HAL_TIM_PWM_Init+0x148>)
 8003524:	4282      	cmp	r2, r0
 8003526:	d022      	beq.n	800356e <HAL_TIM_PWM_Init+0x82>
 8003528:	f500 6080 	add.w	r0, r0, #1024	; 0x400
 800352c:	4282      	cmp	r2, r0
 800352e:	d01e      	beq.n	800356e <HAL_TIM_PWM_Init+0x82>
 8003530:	4f41      	ldr	r7, [pc, #260]	; (8003638 <HAL_TIM_PWM_Init+0x14c>)
 8003532:	4d42      	ldr	r5, [pc, #264]	; (800363c <HAL_TIM_PWM_Init+0x150>)
 8003534:	1bd7      	subs	r7, r2, r7
 8003536:	42aa      	cmp	r2, r5
 8003538:	fab7 f787 	clz	r7, r7
 800353c:	ea4f 1757 	mov.w	r7, r7, lsr #5
 8003540:	d05a      	beq.n	80035f8 <HAL_TIM_PWM_Init+0x10c>
 8003542:	2f00      	cmp	r7, #0
 8003544:	d158      	bne.n	80035f8 <HAL_TIM_PWM_Init+0x10c>
 8003546:	483e      	ldr	r0, [pc, #248]	; (8003640 <HAL_TIM_PWM_Init+0x154>)
 8003548:	493e      	ldr	r1, [pc, #248]	; (8003644 <HAL_TIM_PWM_Init+0x158>)
 800354a:	428a      	cmp	r2, r1
 800354c:	bf18      	it	ne
 800354e:	4282      	cmpne	r2, r0
 8003550:	d05d      	beq.n	800360e <HAL_TIM_PWM_Init+0x122>
 8003552:	f501 6180 	add.w	r1, r1, #1024	; 0x400
 8003556:	428a      	cmp	r2, r1
 8003558:	d059      	beq.n	800360e <HAL_TIM_PWM_Init+0x122>
 800355a:	69a1      	ldr	r1, [r4, #24]
 800355c:	f023 0380 	bic.w	r3, r3, #128	; 0x80
 8003560:	68e0      	ldr	r0, [r4, #12]
 8003562:	430b      	orrs	r3, r1
 8003564:	6861      	ldr	r1, [r4, #4]
 8003566:	6013      	str	r3, [r2, #0]
 8003568:	62d0      	str	r0, [r2, #44]	; 0x2c
 800356a:	6291      	str	r1, [r2, #40]	; 0x28
 800356c:	e023      	b.n	80035b6 <HAL_TIM_PWM_Init+0xca>
 800356e:	4f32      	ldr	r7, [pc, #200]	; (8003638 <HAL_TIM_PWM_Init+0x14c>)
 8003570:	f023 0370 	bic.w	r3, r3, #112	; 0x70
 8003574:	68a5      	ldr	r5, [r4, #8]
 8003576:	1bd7      	subs	r7, r2, r7
 8003578:	432b      	orrs	r3, r5
 800357a:	fab7 f787 	clz	r7, r7
 800357e:	097f      	lsrs	r7, r7, #5
 8003580:	6920      	ldr	r0, [r4, #16]
 8003582:	f423 7340 	bic.w	r3, r3, #768	; 0x300
 8003586:	69a5      	ldr	r5, [r4, #24]
 8003588:	4303      	orrs	r3, r0
 800358a:	68e6      	ldr	r6, [r4, #12]
 800358c:	6860      	ldr	r0, [r4, #4]
 800358e:	f023 0380 	bic.w	r3, r3, #128	; 0x80
 8003592:	432b      	orrs	r3, r5
 8003594:	6013      	str	r3, [r2, #0]
 8003596:	62d6      	str	r6, [r2, #44]	; 0x2c
 8003598:	6290      	str	r0, [r2, #40]	; 0x28
 800359a:	b951      	cbnz	r1, 80035b2 <HAL_TIM_PWM_Init+0xc6>
 800359c:	b94f      	cbnz	r7, 80035b2 <HAL_TIM_PWM_Init+0xc6>
 800359e:	4928      	ldr	r1, [pc, #160]	; (8003640 <HAL_TIM_PWM_Init+0x154>)
 80035a0:	4b28      	ldr	r3, [pc, #160]	; (8003644 <HAL_TIM_PWM_Init+0x158>)
 80035a2:	429a      	cmp	r2, r3
 80035a4:	bf18      	it	ne
 80035a6:	428a      	cmpne	r2, r1
 80035a8:	d003      	beq.n	80035b2 <HAL_TIM_PWM_Init+0xc6>
 80035aa:	f503 6380 	add.w	r3, r3, #1024	; 0x400
 80035ae:	429a      	cmp	r2, r3
 80035b0:	d101      	bne.n	80035b6 <HAL_TIM_PWM_Init+0xca>
 80035b2:	6963      	ldr	r3, [r4, #20]
 80035b4:	6313      	str	r3, [r2, #48]	; 0x30
 80035b6:	2301      	movs	r3, #1
 80035b8:	2000      	movs	r0, #0
 80035ba:	6153      	str	r3, [r2, #20]
 80035bc:	f884 3048 	strb.w	r3, [r4, #72]	; 0x48
 80035c0:	f884 303e 	strb.w	r3, [r4, #62]	; 0x3e
 80035c4:	f884 303f 	strb.w	r3, [r4, #63]	; 0x3f
 80035c8:	f884 3040 	strb.w	r3, [r4, #64]	; 0x40
 80035cc:	f884 3041 	strb.w	r3, [r4, #65]	; 0x41
 80035d0:	f884 3042 	strb.w	r3, [r4, #66]	; 0x42
 80035d4:	f884 3043 	strb.w	r3, [r4, #67]	; 0x43
 80035d8:	f884 3044 	strb.w	r3, [r4, #68]	; 0x44
 80035dc:	f884 3045 	strb.w	r3, [r4, #69]	; 0x45
 80035e0:	f884 3046 	strb.w	r3, [r4, #70]	; 0x46
 80035e4:	f884 3047 	strb.w	r3, [r4, #71]	; 0x47
 80035e8:	f884 303d 	strb.w	r3, [r4, #61]	; 0x3d
 80035ec:	bdf8      	pop	{r3, r4, r5, r6, r7, pc}
 80035ee:	f880 203c 	strb.w	r2, [r0, #60]	; 0x3c
 80035f2:	f7ff ff79 	bl	80034e8 <HAL_TIM_PWM_MspInit>
 80035f6:	e784      	b.n	8003502 <HAL_TIM_PWM_Init+0x16>
 80035f8:	4810      	ldr	r0, [pc, #64]	; (800363c <HAL_TIM_PWM_Init+0x150>)
 80035fa:	f023 0370 	bic.w	r3, r3, #112	; 0x70
 80035fe:	68a5      	ldr	r5, [r4, #8]
 8003600:	4282      	cmp	r2, r0
 8003602:	ea43 0305 	orr.w	r3, r3, r5
 8003606:	d0bb      	beq.n	8003580 <HAL_TIM_PWM_Init+0x94>
 8003608:	2f00      	cmp	r7, #0
 800360a:	d1b9      	bne.n	8003580 <HAL_TIM_PWM_Init+0x94>
 800360c:	e79b      	b.n	8003546 <HAL_TIM_PWM_Init+0x5a>
 800360e:	6921      	ldr	r1, [r4, #16]
 8003610:	f423 7340 	bic.w	r3, r3, #768	; 0x300
 8003614:	69a5      	ldr	r5, [r4, #24]
 8003616:	430b      	orrs	r3, r1
 8003618:	68e0      	ldr	r0, [r4, #12]
 800361a:	6861      	ldr	r1, [r4, #4]
 800361c:	f023 0380 	bic.w	r3, r3, #128	; 0x80
 8003620:	432b      	orrs	r3, r5
 8003622:	6013      	str	r3, [r2, #0]
 8003624:	62d0      	str	r0, [r2, #44]	; 0x2c
 8003626:	6291      	str	r1, [r2, #40]	; 0x28
 8003628:	e7b9      	b.n	800359e <HAL_TIM_PWM_Init+0xb2>
 800362a:	2001      	movs	r0, #1
 800362c:	4770      	bx	lr
 800362e:	bf00      	nop
 8003630:	40010000 	.word	0x40010000
 8003634:	40000400 	.word	0x40000400
 8003638:	40010400 	.word	0x40010400
 800363c:	40000c00 	.word	0x40000c00
 8003640:	40014000 	.word	0x40014000
 8003644:	40014400 	.word	0x40014400

08003648 <HAL_TIM_PWM_Start>:
 8003648:	2900      	cmp	r1, #0
 800364a:	d159      	bne.n	8003700 <HAL_TIM_PWM_Start+0xb8>
 800364c:	f890 303e 	ldrb.w	r3, [r0, #62]	; 0x3e
 8003650:	2b01      	cmp	r3, #1
 8003652:	d15f      	bne.n	8003714 <HAL_TIM_PWM_Start+0xcc>
 8003654:	2302      	movs	r3, #2
 8003656:	f880 303e 	strb.w	r3, [r0, #62]	; 0x3e
 800365a:	6803      	ldr	r3, [r0, #0]
 800365c:	2201      	movs	r2, #1
 800365e:	f001 011f 	and.w	r1, r1, #31
 8003662:	4844      	ldr	r0, [pc, #272]	; (8003774 <HAL_TIM_PWM_Start+0x12c>)
 8003664:	b470      	push	{r4, r5, r6}
 8003666:	fa02 f101 	lsl.w	r1, r2, r1
 800366a:	6a1c      	ldr	r4, [r3, #32]
 800366c:	4a42      	ldr	r2, [pc, #264]	; (8003778 <HAL_TIM_PWM_Start+0x130>)
 800366e:	ea24 0401 	bic.w	r4, r4, r1
 8003672:	4e42      	ldr	r6, [pc, #264]	; (800377c <HAL_TIM_PWM_Start+0x134>)
 8003674:	4293      	cmp	r3, r2
 8003676:	bf18      	it	ne
 8003678:	4283      	cmpne	r3, r0
 800367a:	4d41      	ldr	r5, [pc, #260]	; (8003780 <HAL_TIM_PWM_Start+0x138>)
 800367c:	f5a0 4080 	sub.w	r0, r0, #16384	; 0x4000
 8003680:	621c      	str	r4, [r3, #32]
 8003682:	bf0c      	ite	eq
 8003684:	2201      	moveq	r2, #1
 8003686:	2200      	movne	r2, #0
 8003688:	6a1c      	ldr	r4, [r3, #32]
 800368a:	42b3      	cmp	r3, r6
 800368c:	bf08      	it	eq
 800368e:	f042 0201 	orreq.w	r2, r2, #1
 8003692:	4283      	cmp	r3, r0
 8003694:	bf18      	it	ne
 8003696:	42ab      	cmpne	r3, r5
 8003698:	ea41 0104 	orr.w	r1, r1, r4
 800369c:	bf0c      	ite	eq
 800369e:	2001      	moveq	r0, #1
 80036a0:	2000      	movne	r0, #0
 80036a2:	6219      	str	r1, [r3, #32]
 80036a4:	b902      	cbnz	r2, 80036a8 <HAL_TIM_PWM_Start+0x60>
 80036a6:	b118      	cbz	r0, 80036b0 <HAL_TIM_PWM_Start+0x68>
 80036a8:	6c5a      	ldr	r2, [r3, #68]	; 0x44
 80036aa:	f442 4200 	orr.w	r2, r2, #32768	; 0x8000
 80036ae:	645a      	str	r2, [r3, #68]	; 0x44
 80036b0:	4a34      	ldr	r2, [pc, #208]	; (8003784 <HAL_TIM_PWM_Start+0x13c>)
 80036b2:	4d35      	ldr	r5, [pc, #212]	; (8003788 <HAL_TIM_PWM_Start+0x140>)
 80036b4:	4293      	cmp	r3, r2
 80036b6:	bf18      	it	ne
 80036b8:	f1b3 4f80 	cmpne.w	r3, #1073741824	; 0x40000000
 80036bc:	4c33      	ldr	r4, [pc, #204]	; (800378c <HAL_TIM_PWM_Start+0x144>)
 80036be:	4934      	ldr	r1, [pc, #208]	; (8003790 <HAL_TIM_PWM_Start+0x148>)
 80036c0:	bf0c      	ite	eq
 80036c2:	2201      	moveq	r2, #1
 80036c4:	2200      	movne	r2, #0
 80036c6:	42ab      	cmp	r3, r5
 80036c8:	bf08      	it	eq
 80036ca:	f042 0201 	orreq.w	r2, r2, #1
 80036ce:	42a3      	cmp	r3, r4
 80036d0:	bf08      	it	eq
 80036d2:	f042 0201 	orreq.w	r2, r2, #1
 80036d6:	428b      	cmp	r3, r1
 80036d8:	bf08      	it	eq
 80036da:	f042 0201 	orreq.w	r2, r2, #1
 80036de:	b902      	cbnz	r2, 80036e2 <HAL_TIM_PWM_Start+0x9a>
 80036e0:	b3b8      	cbz	r0, 8003752 <HAL_TIM_PWM_Start+0x10a>
 80036e2:	6899      	ldr	r1, [r3, #8]
 80036e4:	4a2b      	ldr	r2, [pc, #172]	; (8003794 <HAL_TIM_PWM_Start+0x14c>)
 80036e6:	400a      	ands	r2, r1
 80036e8:	2a06      	cmp	r2, #6
 80036ea:	d015      	beq.n	8003718 <HAL_TIM_PWM_Start+0xd0>
 80036ec:	f5b2 3f80 	cmp.w	r2, #65536	; 0x10000
 80036f0:	d012      	beq.n	8003718 <HAL_TIM_PWM_Start+0xd0>
 80036f2:	681a      	ldr	r2, [r3, #0]
 80036f4:	2000      	movs	r0, #0
 80036f6:	f042 0201 	orr.w	r2, r2, #1
 80036fa:	601a      	str	r2, [r3, #0]
 80036fc:	bc70      	pop	{r4, r5, r6}
 80036fe:	4770      	bx	lr
 8003700:	2904      	cmp	r1, #4
 8003702:	d016      	beq.n	8003732 <HAL_TIM_PWM_Start+0xea>
 8003704:	2908      	cmp	r1, #8
 8003706:	d01c      	beq.n	8003742 <HAL_TIM_PWM_Start+0xfa>
 8003708:	290c      	cmp	r1, #12
 800370a:	d108      	bne.n	800371e <HAL_TIM_PWM_Start+0xd6>
 800370c:	f890 3041 	ldrb.w	r3, [r0, #65]	; 0x41
 8003710:	2b01      	cmp	r3, #1
 8003712:	d023      	beq.n	800375c <HAL_TIM_PWM_Start+0x114>
 8003714:	2001      	movs	r0, #1
 8003716:	4770      	bx	lr
 8003718:	2000      	movs	r0, #0
 800371a:	bc70      	pop	{r4, r5, r6}
 800371c:	4770      	bx	lr
 800371e:	2910      	cmp	r1, #16
 8003720:	d020      	beq.n	8003764 <HAL_TIM_PWM_Start+0x11c>
 8003722:	f890 3043 	ldrb.w	r3, [r0, #67]	; 0x43
 8003726:	2b01      	cmp	r3, #1
 8003728:	d1f4      	bne.n	8003714 <HAL_TIM_PWM_Start+0xcc>
 800372a:	2302      	movs	r3, #2
 800372c:	f880 3043 	strb.w	r3, [r0, #67]	; 0x43
 8003730:	e793      	b.n	800365a <HAL_TIM_PWM_Start+0x12>
 8003732:	f890 303f 	ldrb.w	r3, [r0, #63]	; 0x3f
 8003736:	2b01      	cmp	r3, #1
 8003738:	d1ec      	bne.n	8003714 <HAL_TIM_PWM_Start+0xcc>
 800373a:	2302      	movs	r3, #2
 800373c:	f880 303f 	strb.w	r3, [r0, #63]	; 0x3f
 8003740:	e78b      	b.n	800365a <HAL_TIM_PWM_Start+0x12>
 8003742:	f890 3040 	ldrb.w	r3, [r0, #64]	; 0x40
 8003746:	2b01      	cmp	r3, #1
 8003748:	d1e4      	bne.n	8003714 <HAL_TIM_PWM_Start+0xcc>
 800374a:	2302      	movs	r3, #2
 800374c:	f880 3040 	strb.w	r3, [r0, #64]	; 0x40
 8003750:	e783      	b.n	800365a <HAL_TIM_PWM_Start+0x12>
 8003752:	681a      	ldr	r2, [r3, #0]
 8003754:	f042 0201 	orr.w	r2, r2, #1
 8003758:	601a      	str	r2, [r3, #0]
 800375a:	e7cf      	b.n	80036fc <HAL_TIM_PWM_Start+0xb4>
 800375c:	2302      	movs	r3, #2
 800375e:	f880 3041 	strb.w	r3, [r0, #65]	; 0x41
 8003762:	e77a      	b.n	800365a <HAL_TIM_PWM_Start+0x12>
 8003764:	f890 3042 	ldrb.w	r3, [r0, #66]	; 0x42
 8003768:	2b01      	cmp	r3, #1
 800376a:	d1d3      	bne.n	8003714 <HAL_TIM_PWM_Start+0xcc>
 800376c:	2302      	movs	r3, #2
 800376e:	f880 3042 	strb.w	r3, [r0, #66]	; 0x42
 8003772:	e772      	b.n	800365a <HAL_TIM_PWM_Start+0x12>
 8003774:	40014400 	.word	0x40014400
 8003778:	40014000 	.word	0x40014000
 800377c:	40014800 	.word	0x40014800
 8003780:	40010000 	.word	0x40010000
 8003784:	40000400 	.word	0x40000400
 8003788:	40000800 	.word	0x40000800
 800378c:	40000c00 	.word	0x40000c00
 8003790:	40001800 	.word	0x40001800
 8003794:	00010007 	.word	0x00010007

08003798 <HAL_TIM_OC_DelayElapsedCallback>:
 8003798:	4770      	bx	lr
 800379a:	bf00      	nop

0800379c <HAL_TIM_IC_CaptureCallback>:
 800379c:	4770      	bx	lr
 800379e:	bf00      	nop

080037a0 <HAL_TIM_PWM_PulseFinishedCallback>:
 80037a0:	4770      	bx	lr
 80037a2:	bf00      	nop

080037a4 <HAL_TIM_TriggerCallback>:
 80037a4:	4770      	bx	lr
 80037a6:	bf00      	nop

080037a8 <HAL_TIM_IRQHandler>:
 80037a8:	6803      	ldr	r3, [r0, #0]
 80037aa:	691a      	ldr	r2, [r3, #16]
 80037ac:	0791      	lsls	r1, r2, #30
 80037ae:	b510      	push	{r4, lr}
 80037b0:	4604      	mov	r4, r0
 80037b2:	d502      	bpl.n	80037ba <HAL_TIM_IRQHandler+0x12>
 80037b4:	68da      	ldr	r2, [r3, #12]
 80037b6:	0792      	lsls	r2, r2, #30
 80037b8:	d468      	bmi.n	800388c <HAL_TIM_IRQHandler+0xe4>
 80037ba:	691a      	ldr	r2, [r3, #16]
 80037bc:	0752      	lsls	r2, r2, #29
 80037be:	d502      	bpl.n	80037c6 <HAL_TIM_IRQHandler+0x1e>
 80037c0:	68da      	ldr	r2, [r3, #12]
 80037c2:	0750      	lsls	r0, r2, #29
 80037c4:	d44f      	bmi.n	8003866 <HAL_TIM_IRQHandler+0xbe>
 80037c6:	691a      	ldr	r2, [r3, #16]
 80037c8:	0711      	lsls	r1, r2, #28
 80037ca:	d502      	bpl.n	80037d2 <HAL_TIM_IRQHandler+0x2a>
 80037cc:	68da      	ldr	r2, [r3, #12]
 80037ce:	0712      	lsls	r2, r2, #28
 80037d0:	d437      	bmi.n	8003842 <HAL_TIM_IRQHandler+0x9a>
 80037d2:	691a      	ldr	r2, [r3, #16]
 80037d4:	06d0      	lsls	r0, r2, #27
 80037d6:	d502      	bpl.n	80037de <HAL_TIM_IRQHandler+0x36>
 80037d8:	68da      	ldr	r2, [r3, #12]
 80037da:	06d1      	lsls	r1, r2, #27
 80037dc:	d41e      	bmi.n	800381c <HAL_TIM_IRQHandler+0x74>
 80037de:	691a      	ldr	r2, [r3, #16]
 80037e0:	07d2      	lsls	r2, r2, #31
 80037e2:	d502      	bpl.n	80037ea <HAL_TIM_IRQHandler+0x42>
 80037e4:	68da      	ldr	r2, [r3, #12]
 80037e6:	07d0      	lsls	r0, r2, #31
 80037e8:	d469      	bmi.n	80038be <HAL_TIM_IRQHandler+0x116>
 80037ea:	691a      	ldr	r2, [r3, #16]
 80037ec:	0611      	lsls	r1, r2, #24
 80037ee:	d502      	bpl.n	80037f6 <HAL_TIM_IRQHandler+0x4e>
 80037f0:	68da      	ldr	r2, [r3, #12]
 80037f2:	0612      	lsls	r2, r2, #24
 80037f4:	d46b      	bmi.n	80038ce <HAL_TIM_IRQHandler+0x126>
 80037f6:	691a      	ldr	r2, [r3, #16]
 80037f8:	05d0      	lsls	r0, r2, #23
 80037fa:	d502      	bpl.n	8003802 <HAL_TIM_IRQHandler+0x5a>
 80037fc:	68da      	ldr	r2, [r3, #12]
 80037fe:	0611      	lsls	r1, r2, #24
 8003800:	d46d      	bmi.n	80038de <HAL_TIM_IRQHandler+0x136>
 8003802:	691a      	ldr	r2, [r3, #16]
 8003804:	0652      	lsls	r2, r2, #25
 8003806:	d502      	bpl.n	800380e <HAL_TIM_IRQHandler+0x66>
 8003808:	68da      	ldr	r2, [r3, #12]
 800380a:	0650      	lsls	r0, r2, #25
 800380c:	d46f      	bmi.n	80038ee <HAL_TIM_IRQHandler+0x146>
 800380e:	691a      	ldr	r2, [r3, #16]
 8003810:	0691      	lsls	r1, r2, #26
 8003812:	d502      	bpl.n	800381a <HAL_TIM_IRQHandler+0x72>
 8003814:	68da      	ldr	r2, [r3, #12]
 8003816:	0692      	lsls	r2, r2, #26
 8003818:	d449      	bmi.n	80038ae <HAL_TIM_IRQHandler+0x106>
 800381a:	bd10      	pop	{r4, pc}
 800381c:	f06f 0110 	mvn.w	r1, #16
 8003820:	2208      	movs	r2, #8
 8003822:	4620      	mov	r0, r4
 8003824:	6119      	str	r1, [r3, #16]
 8003826:	7722      	strb	r2, [r4, #28]
 8003828:	69db      	ldr	r3, [r3, #28]
 800382a:	f413 7f40 	tst.w	r3, #768	; 0x300
 800382e:	d16f      	bne.n	8003910 <HAL_TIM_IRQHandler+0x168>
 8003830:	f7ff ffb2 	bl	8003798 <HAL_TIM_OC_DelayElapsedCallback>
 8003834:	4620      	mov	r0, r4
 8003836:	f7ff ffb3 	bl	80037a0 <HAL_TIM_PWM_PulseFinishedCallback>
 800383a:	2200      	movs	r2, #0
 800383c:	6823      	ldr	r3, [r4, #0]
 800383e:	7722      	strb	r2, [r4, #28]
 8003840:	e7cd      	b.n	80037de <HAL_TIM_IRQHandler+0x36>
 8003842:	f06f 0108 	mvn.w	r1, #8
 8003846:	2204      	movs	r2, #4
 8003848:	4620      	mov	r0, r4
 800384a:	6119      	str	r1, [r3, #16]
 800384c:	7722      	strb	r2, [r4, #28]
 800384e:	69db      	ldr	r3, [r3, #28]
 8003850:	079b      	lsls	r3, r3, #30
 8003852:	d15a      	bne.n	800390a <HAL_TIM_IRQHandler+0x162>
 8003854:	f7ff ffa0 	bl	8003798 <HAL_TIM_OC_DelayElapsedCallback>
 8003858:	4620      	mov	r0, r4
 800385a:	f7ff ffa1 	bl	80037a0 <HAL_TIM_PWM_PulseFinishedCallback>
 800385e:	2200      	movs	r2, #0
 8003860:	6823      	ldr	r3, [r4, #0]
 8003862:	7722      	strb	r2, [r4, #28]
 8003864:	e7b5      	b.n	80037d2 <HAL_TIM_IRQHandler+0x2a>
 8003866:	f06f 0104 	mvn.w	r1, #4
 800386a:	2202      	movs	r2, #2
 800386c:	4620      	mov	r0, r4
 800386e:	6119      	str	r1, [r3, #16]
 8003870:	7722      	strb	r2, [r4, #28]
 8003872:	699b      	ldr	r3, [r3, #24]
 8003874:	f413 7f40 	tst.w	r3, #768	; 0x300
 8003878:	d144      	bne.n	8003904 <HAL_TIM_IRQHandler+0x15c>
 800387a:	f7ff ff8d 	bl	8003798 <HAL_TIM_OC_DelayElapsedCallback>
 800387e:	4620      	mov	r0, r4
 8003880:	f7ff ff8e 	bl	80037a0 <HAL_TIM_PWM_PulseFinishedCallback>
 8003884:	2200      	movs	r2, #0
 8003886:	6823      	ldr	r3, [r4, #0]
 8003888:	7722      	strb	r2, [r4, #28]
 800388a:	e79c      	b.n	80037c6 <HAL_TIM_IRQHandler+0x1e>
 800388c:	f06f 0102 	mvn.w	r1, #2
 8003890:	2201      	movs	r2, #1
 8003892:	6119      	str	r1, [r3, #16]
 8003894:	7702      	strb	r2, [r0, #28]
 8003896:	699b      	ldr	r3, [r3, #24]
 8003898:	0799      	lsls	r1, r3, #30
 800389a:	d130      	bne.n	80038fe <HAL_TIM_IRQHandler+0x156>
 800389c:	f7ff ff7c 	bl	8003798 <HAL_TIM_OC_DelayElapsedCallback>
 80038a0:	4620      	mov	r0, r4
 80038a2:	f7ff ff7d 	bl	80037a0 <HAL_TIM_PWM_PulseFinishedCallback>
 80038a6:	2200      	movs	r2, #0
 80038a8:	6823      	ldr	r3, [r4, #0]
 80038aa:	7722      	strb	r2, [r4, #28]
 80038ac:	e785      	b.n	80037ba <HAL_TIM_IRQHandler+0x12>
 80038ae:	f06f 0220 	mvn.w	r2, #32
 80038b2:	4620      	mov	r0, r4
 80038b4:	611a      	str	r2, [r3, #16]
 80038b6:	e8bd 4010 	ldmia.w	sp!, {r4, lr}
 80038ba:	f000 baad 	b.w	8003e18 <HAL_TIMEx_CommutCallback>
 80038be:	f06f 0201 	mvn.w	r2, #1
 80038c2:	4620      	mov	r0, r4
 80038c4:	611a      	str	r2, [r3, #16]
 80038c6:	f7fc fe4b 	bl	8000560 <HAL_TIM_PeriodElapsedCallback>
 80038ca:	6823      	ldr	r3, [r4, #0]
 80038cc:	e78d      	b.n	80037ea <HAL_TIM_IRQHandler+0x42>
 80038ce:	f06f 0280 	mvn.w	r2, #128	; 0x80
 80038d2:	4620      	mov	r0, r4
 80038d4:	611a      	str	r2, [r3, #16]
 80038d6:	f000 faa1 	bl	8003e1c <HAL_TIMEx_BreakCallback>
 80038da:	6823      	ldr	r3, [r4, #0]
 80038dc:	e78b      	b.n	80037f6 <HAL_TIM_IRQHandler+0x4e>
 80038de:	f46f 7280 	mvn.w	r2, #256	; 0x100
 80038e2:	4620      	mov	r0, r4
 80038e4:	611a      	str	r2, [r3, #16]
 80038e6:	f000 fa9b 	bl	8003e20 <HAL_TIMEx_Break2Callback>
 80038ea:	6823      	ldr	r3, [r4, #0]
 80038ec:	e789      	b.n	8003802 <HAL_TIM_IRQHandler+0x5a>
 80038ee:	f06f 0240 	mvn.w	r2, #64	; 0x40
 80038f2:	4620      	mov	r0, r4
 80038f4:	611a      	str	r2, [r3, #16]
 80038f6:	f7ff ff55 	bl	80037a4 <HAL_TIM_TriggerCallback>
 80038fa:	6823      	ldr	r3, [r4, #0]
 80038fc:	e787      	b.n	800380e <HAL_TIM_IRQHandler+0x66>
 80038fe:	f7ff ff4d 	bl	800379c <HAL_TIM_IC_CaptureCallback>
 8003902:	e7d0      	b.n	80038a6 <HAL_TIM_IRQHandler+0xfe>
 8003904:	f7ff ff4a 	bl	800379c <HAL_TIM_IC_CaptureCallback>
 8003908:	e7bc      	b.n	8003884 <HAL_TIM_IRQHandler+0xdc>
 800390a:	f7ff ff47 	bl	800379c <HAL_TIM_IC_CaptureCallback>
 800390e:	e7a6      	b.n	800385e <HAL_TIM_IRQHandler+0xb6>
 8003910:	f7ff ff44 	bl	800379c <HAL_TIM_IC_CaptureCallback>
 8003914:	e791      	b.n	800383a <HAL_TIM_IRQHandler+0x92>
 8003916:	bf00      	nop

08003918 <TIM_OC2_SetConfig>:
 8003918:	b4f0      	push	{r4, r5, r6, r7}
 800391a:	6a04      	ldr	r4, [r0, #32]
 800391c:	f8d1 c008 	ldr.w	ip, [r1, #8]
 8003920:	f024 0410 	bic.w	r4, r4, #16
 8003924:	680a      	ldr	r2, [r1, #0]
 8003926:	4f19      	ldr	r7, [pc, #100]	; (800398c <TIM_OC2_SetConfig+0x74>)
 8003928:	6204      	str	r4, [r0, #32]
 800392a:	4e19      	ldr	r6, [pc, #100]	; (8003990 <TIM_OC2_SetConfig+0x78>)
 800392c:	6a03      	ldr	r3, [r0, #32]
 800392e:	6845      	ldr	r5, [r0, #4]
 8003930:	42b0      	cmp	r0, r6
 8003932:	6984      	ldr	r4, [r0, #24]
 8003934:	f023 0320 	bic.w	r3, r3, #32
 8003938:	ea07 0704 	and.w	r7, r7, r4
 800393c:	ea43 130c 	orr.w	r3, r3, ip, lsl #4
 8003940:	ea47 2202 	orr.w	r2, r7, r2, lsl #8
 8003944:	d00d      	beq.n	8003962 <TIM_OC2_SetConfig+0x4a>
 8003946:	4c13      	ldr	r4, [pc, #76]	; (8003994 <TIM_OC2_SetConfig+0x7c>)
 8003948:	42a0      	cmp	r0, r4
 800394a:	d00a      	beq.n	8003962 <TIM_OC2_SetConfig+0x4a>
 800394c:	4e12      	ldr	r6, [pc, #72]	; (8003998 <TIM_OC2_SetConfig+0x80>)
 800394e:	4c13      	ldr	r4, [pc, #76]	; (800399c <TIM_OC2_SetConfig+0x84>)
 8003950:	42a0      	cmp	r0, r4
 8003952:	bf18      	it	ne
 8003954:	42b0      	cmpne	r0, r6
 8003956:	d00b      	beq.n	8003970 <TIM_OC2_SetConfig+0x58>
 8003958:	f504 6480 	add.w	r4, r4, #1024	; 0x400
 800395c:	42a0      	cmp	r0, r4
 800395e:	d10e      	bne.n	800397e <TIM_OC2_SetConfig+0x66>
 8003960:	e006      	b.n	8003970 <TIM_OC2_SetConfig+0x58>
 8003962:	f023 0380 	bic.w	r3, r3, #128	; 0x80
 8003966:	68cc      	ldr	r4, [r1, #12]
 8003968:	ea43 1304 	orr.w	r3, r3, r4, lsl #4
 800396c:	f023 0340 	bic.w	r3, r3, #64	; 0x40
 8003970:	694c      	ldr	r4, [r1, #20]
 8003972:	f425 6540 	bic.w	r5, r5, #3072	; 0xc00
 8003976:	698e      	ldr	r6, [r1, #24]
 8003978:	4334      	orrs	r4, r6
 800397a:	ea45 0584 	orr.w	r5, r5, r4, lsl #2
 800397e:	6849      	ldr	r1, [r1, #4]
 8003980:	6045      	str	r5, [r0, #4]
 8003982:	6182      	str	r2, [r0, #24]
 8003984:	6381      	str	r1, [r0, #56]	; 0x38
 8003986:	6203      	str	r3, [r0, #32]
 8003988:	bcf0      	pop	{r4, r5, r6, r7}
 800398a:	4770      	bx	lr
 800398c:	feff8cff 	.word	0xfeff8cff
 8003990:	40010000 	.word	0x40010000
 8003994:	40010400 	.word	0x40010400
 8003998:	40014000 	.word	0x40014000
 800399c:	40014400 	.word	0x40014400

080039a0 <HAL_TIM_OC_ConfigChannel>:
 80039a0:	b5f8      	push	{r3, r4, r5, r6, r7, lr}
 80039a2:	f890 303c 	ldrb.w	r3, [r0, #60]	; 0x3c
 80039a6:	2b01      	cmp	r3, #1
 80039a8:	f000 80c1 	beq.w	8003b2e <HAL_TIM_OC_ConfigChannel+0x18e>
 80039ac:	2301      	movs	r3, #1
 80039ae:	4604      	mov	r4, r0
 80039b0:	f880 303c 	strb.w	r3, [r0, #60]	; 0x3c
 80039b4:	2a14      	cmp	r2, #20
 80039b6:	d83b      	bhi.n	8003a30 <HAL_TIM_OC_ConfigChannel+0x90>
 80039b8:	e8df f002 	tbb	[pc, r2]
 80039bc:	3a3a3a71 	.word	0x3a3a3a71
 80039c0:	3a3a3a78 	.word	0x3a3a3a78
 80039c4:	3a3a3a7f 	.word	0x3a3a3a7f
 80039c8:	3a3a3a0b 	.word	0x3a3a3a0b
 80039cc:	3a3a3a86 	.word	0x3a3a3a86
 80039d0:	3e          	.byte	0x3e
 80039d1:	00          	.byte	0x00
 80039d2:	6803      	ldr	r3, [r0, #0]
 80039d4:	f8d1 c008 	ldr.w	ip, [r1, #8]
 80039d8:	6a1d      	ldr	r5, [r3, #32]
 80039da:	680f      	ldr	r7, [r1, #0]
 80039dc:	f425 5580 	bic.w	r5, r5, #4096	; 0x1000
 80039e0:	4e54      	ldr	r6, [pc, #336]	; (8003b34 <HAL_TIM_OC_ConfigChannel+0x194>)
 80039e2:	621d      	str	r5, [r3, #32]
 80039e4:	42b3      	cmp	r3, r6
 80039e6:	6a1a      	ldr	r2, [r3, #32]
 80039e8:	685d      	ldr	r5, [r3, #4]
 80039ea:	69d8      	ldr	r0, [r3, #28]
 80039ec:	f422 5200 	bic.w	r2, r2, #8192	; 0x2000
 80039f0:	f420 40e6 	bic.w	r0, r0, #29440	; 0x7300
 80039f4:	ea42 320c 	orr.w	r2, r2, ip, lsl #12
 80039f8:	ea40 2007 	orr.w	r0, r0, r7, lsl #8
 80039fc:	d00e      	beq.n	8003a1c <HAL_TIM_OC_ConfigChannel+0x7c>
 80039fe:	f506 6680 	add.w	r6, r6, #1024	; 0x400
 8003a02:	42b3      	cmp	r3, r6
 8003a04:	d00a      	beq.n	8003a1c <HAL_TIM_OC_ConfigChannel+0x7c>
 8003a06:	4f4c      	ldr	r7, [pc, #304]	; (8003b38 <HAL_TIM_OC_ConfigChannel+0x198>)
 8003a08:	f506 4680 	add.w	r6, r6, #16384	; 0x4000
 8003a0c:	42b3      	cmp	r3, r6
 8003a0e:	bf18      	it	ne
 8003a10:	42bb      	cmpne	r3, r7
 8003a12:	d003      	beq.n	8003a1c <HAL_TIM_OC_ConfigChannel+0x7c>
 8003a14:	f506 6680 	add.w	r6, r6, #1024	; 0x400
 8003a18:	42b3      	cmp	r3, r6
 8003a1a:	d104      	bne.n	8003a26 <HAL_TIM_OC_ConfigChannel+0x86>
 8003a1c:	f425 4580 	bic.w	r5, r5, #16384	; 0x4000
 8003a20:	694e      	ldr	r6, [r1, #20]
 8003a22:	ea45 1586 	orr.w	r5, r5, r6, lsl #6
 8003a26:	6849      	ldr	r1, [r1, #4]
 8003a28:	605d      	str	r5, [r3, #4]
 8003a2a:	61d8      	str	r0, [r3, #28]
 8003a2c:	6419      	str	r1, [r3, #64]	; 0x40
 8003a2e:	621a      	str	r2, [r3, #32]
 8003a30:	2000      	movs	r0, #0
 8003a32:	f884 003c 	strb.w	r0, [r4, #60]	; 0x3c
 8003a36:	bdf8      	pop	{r3, r4, r5, r6, r7, pc}
 8003a38:	6803      	ldr	r3, [r0, #0]
 8003a3a:	f8d1 c008 	ldr.w	ip, [r1, #8]
 8003a3e:	6a1d      	ldr	r5, [r3, #32]
 8003a40:	680f      	ldr	r7, [r1, #0]
 8003a42:	f425 1580 	bic.w	r5, r5, #1048576	; 0x100000
 8003a46:	4e3b      	ldr	r6, [pc, #236]	; (8003b34 <HAL_TIM_OC_ConfigChannel+0x194>)
 8003a48:	621d      	str	r5, [r3, #32]
 8003a4a:	42b3      	cmp	r3, r6
 8003a4c:	6a1a      	ldr	r2, [r3, #32]
 8003a4e:	685d      	ldr	r5, [r3, #4]
 8003a50:	6d58      	ldr	r0, [r3, #84]	; 0x54
 8003a52:	f422 1200 	bic.w	r2, r2, #2097152	; 0x200000
 8003a56:	f420 40e0 	bic.w	r0, r0, #28672	; 0x7000
 8003a5a:	ea42 520c 	orr.w	r2, r2, ip, lsl #20
 8003a5e:	ea40 2007 	orr.w	r0, r0, r7, lsl #8
 8003a62:	d00e      	beq.n	8003a82 <HAL_TIM_OC_ConfigChannel+0xe2>
 8003a64:	f506 6680 	add.w	r6, r6, #1024	; 0x400
 8003a68:	42b3      	cmp	r3, r6
 8003a6a:	d00a      	beq.n	8003a82 <HAL_TIM_OC_ConfigChannel+0xe2>
 8003a6c:	4f32      	ldr	r7, [pc, #200]	; (8003b38 <HAL_TIM_OC_ConfigChannel+0x198>)
 8003a6e:	f506 4680 	add.w	r6, r6, #16384	; 0x4000
 8003a72:	42b3      	cmp	r3, r6
 8003a74:	bf18      	it	ne
 8003a76:	42bb      	cmpne	r3, r7
 8003a78:	d003      	beq.n	8003a82 <HAL_TIM_OC_ConfigChannel+0xe2>
 8003a7a:	f506 6680 	add.w	r6, r6, #1024	; 0x400
 8003a7e:	42b3      	cmp	r3, r6
 8003a80:	d104      	bne.n	8003a8c <HAL_TIM_OC_ConfigChannel+0xec>
 8003a82:	f425 3500 	bic.w	r5, r5, #131072	; 0x20000
 8003a86:	694e      	ldr	r6, [r1, #20]
 8003a88:	ea45 2586 	orr.w	r5, r5, r6, lsl #10
 8003a8c:	6849      	ldr	r1, [r1, #4]
 8003a8e:	605d      	str	r5, [r3, #4]
 8003a90:	6558      	str	r0, [r3, #84]	; 0x54
 8003a92:	2000      	movs	r0, #0
 8003a94:	65d9      	str	r1, [r3, #92]	; 0x5c
 8003a96:	621a      	str	r2, [r3, #32]
 8003a98:	f884 003c 	strb.w	r0, [r4, #60]	; 0x3c
 8003a9c:	e7cb      	b.n	8003a36 <HAL_TIM_OC_ConfigChannel+0x96>
 8003a9e:	6800      	ldr	r0, [r0, #0]
 8003aa0:	f7ff faec 	bl	800307c <TIM_OC1_SetConfig>
 8003aa4:	2000      	movs	r0, #0
 8003aa6:	f884 003c 	strb.w	r0, [r4, #60]	; 0x3c
 8003aaa:	e7c4      	b.n	8003a36 <HAL_TIM_OC_ConfigChannel+0x96>
 8003aac:	6800      	ldr	r0, [r0, #0]
 8003aae:	f7ff ff33 	bl	8003918 <TIM_OC2_SetConfig>
 8003ab2:	2000      	movs	r0, #0
 8003ab4:	f884 003c 	strb.w	r0, [r4, #60]	; 0x3c
 8003ab8:	e7bd      	b.n	8003a36 <HAL_TIM_OC_ConfigChannel+0x96>
 8003aba:	6800      	ldr	r0, [r0, #0]
 8003abc:	f7ff fb1e 	bl	80030fc <TIM_OC3_SetConfig>
 8003ac0:	2000      	movs	r0, #0
 8003ac2:	f884 003c 	strb.w	r0, [r4, #60]	; 0x3c
 8003ac6:	e7b6      	b.n	8003a36 <HAL_TIM_OC_ConfigChannel+0x96>
 8003ac8:	6803      	ldr	r3, [r0, #0]
 8003aca:	f8d1 c008 	ldr.w	ip, [r1, #8]
 8003ace:	6a1d      	ldr	r5, [r3, #32]
 8003ad0:	680f      	ldr	r7, [r1, #0]
 8003ad2:	f425 3580 	bic.w	r5, r5, #65536	; 0x10000
 8003ad6:	4e17      	ldr	r6, [pc, #92]	; (8003b34 <HAL_TIM_OC_ConfigChannel+0x194>)
 8003ad8:	621d      	str	r5, [r3, #32]
 8003ada:	42b3      	cmp	r3, r6
 8003adc:	6a1a      	ldr	r2, [r3, #32]
 8003ade:	685d      	ldr	r5, [r3, #4]
 8003ae0:	6d58      	ldr	r0, [r3, #84]	; 0x54
 8003ae2:	f422 3200 	bic.w	r2, r2, #131072	; 0x20000
 8003ae6:	f020 0070 	bic.w	r0, r0, #112	; 0x70
 8003aea:	ea42 420c 	orr.w	r2, r2, ip, lsl #16
 8003aee:	ea40 0007 	orr.w	r0, r0, r7
 8003af2:	d00e      	beq.n	8003b12 <HAL_TIM_OC_ConfigChannel+0x172>
 8003af4:	f506 6680 	add.w	r6, r6, #1024	; 0x400
 8003af8:	42b3      	cmp	r3, r6
 8003afa:	d00a      	beq.n	8003b12 <HAL_TIM_OC_ConfigChannel+0x172>
 8003afc:	4f0e      	ldr	r7, [pc, #56]	; (8003b38 <HAL_TIM_OC_ConfigChannel+0x198>)
 8003afe:	f506 4680 	add.w	r6, r6, #16384	; 0x4000
 8003b02:	42b3      	cmp	r3, r6
 8003b04:	bf18      	it	ne
 8003b06:	42bb      	cmpne	r3, r7
 8003b08:	d003      	beq.n	8003b12 <HAL_TIM_OC_ConfigChannel+0x172>
 8003b0a:	f506 6680 	add.w	r6, r6, #1024	; 0x400
 8003b0e:	42b3      	cmp	r3, r6
 8003b10:	d104      	bne.n	8003b1c <HAL_TIM_OC_ConfigChannel+0x17c>
 8003b12:	f425 3580 	bic.w	r5, r5, #65536	; 0x10000
 8003b16:	694e      	ldr	r6, [r1, #20]
 8003b18:	ea45 2506 	orr.w	r5, r5, r6, lsl #8
 8003b1c:	6849      	ldr	r1, [r1, #4]
 8003b1e:	605d      	str	r5, [r3, #4]
 8003b20:	6558      	str	r0, [r3, #84]	; 0x54
 8003b22:	2000      	movs	r0, #0
 8003b24:	6599      	str	r1, [r3, #88]	; 0x58
 8003b26:	621a      	str	r2, [r3, #32]
 8003b28:	f884 003c 	strb.w	r0, [r4, #60]	; 0x3c
 8003b2c:	e783      	b.n	8003a36 <HAL_TIM_OC_ConfigChannel+0x96>
 8003b2e:	2002      	movs	r0, #2
 8003b30:	bdf8      	pop	{r3, r4, r5, r6, r7, pc}
 8003b32:	bf00      	nop
 8003b34:	40010000 	.word	0x40010000
 8003b38:	40014000 	.word	0x40014000

08003b3c <HAL_TIM_PWM_ConfigChannel>:
 8003b3c:	b5f8      	push	{r3, r4, r5, r6, r7, lr}
 8003b3e:	f890 303c 	ldrb.w	r3, [r0, #60]	; 0x3c
 8003b42:	2b01      	cmp	r3, #1
 8003b44:	f000 811a 	beq.w	8003d7c <HAL_TIM_PWM_ConfigChannel+0x240>
 8003b48:	2301      	movs	r3, #1
 8003b4a:	4604      	mov	r4, r0
 8003b4c:	460d      	mov	r5, r1
 8003b4e:	f880 303c 	strb.w	r3, [r0, #60]	; 0x3c
 8003b52:	2a14      	cmp	r2, #20
 8003b54:	d852      	bhi.n	8003bfc <HAL_TIM_PWM_ConfigChannel+0xc0>
 8003b56:	e8df f012 	tbh	[pc, r2, lsl #1]
 8003b5a:	0095      	.short	0x0095
 8003b5c:	00510051 	.word	0x00510051
 8003b60:	00a90051 	.word	0x00a90051
 8003b64:	00510051 	.word	0x00510051
 8003b68:	00be0051 	.word	0x00be0051
 8003b6c:	00510051 	.word	0x00510051
 8003b70:	00150051 	.word	0x00150051
 8003b74:	00510051 	.word	0x00510051
 8003b78:	00d20051 	.word	0x00d20051
 8003b7c:	00510051 	.word	0x00510051
 8003b80:	00550051 	.word	0x00550051
 8003b84:	6803      	ldr	r3, [r0, #0]
 8003b86:	f8d1 c008 	ldr.w	ip, [r1, #8]
 8003b8a:	6a18      	ldr	r0, [r3, #32]
 8003b8c:	680f      	ldr	r7, [r1, #0]
 8003b8e:	f420 5080 	bic.w	r0, r0, #4096	; 0x1000
 8003b92:	4e7b      	ldr	r6, [pc, #492]	; (8003d80 <HAL_TIM_PWM_ConfigChannel+0x244>)
 8003b94:	6218      	str	r0, [r3, #32]
 8003b96:	42b3      	cmp	r3, r6
 8003b98:	6a1a      	ldr	r2, [r3, #32]
 8003b9a:	6858      	ldr	r0, [r3, #4]
 8003b9c:	69d9      	ldr	r1, [r3, #28]
 8003b9e:	f422 5200 	bic.w	r2, r2, #8192	; 0x2000
 8003ba2:	f421 41e6 	bic.w	r1, r1, #29440	; 0x7300
 8003ba6:	ea42 320c 	orr.w	r2, r2, ip, lsl #12
 8003baa:	ea41 2107 	orr.w	r1, r1, r7, lsl #8
 8003bae:	d00e      	beq.n	8003bce <HAL_TIM_PWM_ConfigChannel+0x92>
 8003bb0:	f506 6680 	add.w	r6, r6, #1024	; 0x400
 8003bb4:	42b3      	cmp	r3, r6
 8003bb6:	d00a      	beq.n	8003bce <HAL_TIM_PWM_ConfigChannel+0x92>
 8003bb8:	4f72      	ldr	r7, [pc, #456]	; (8003d84 <HAL_TIM_PWM_ConfigChannel+0x248>)
 8003bba:	f506 4680 	add.w	r6, r6, #16384	; 0x4000
 8003bbe:	42b3      	cmp	r3, r6
 8003bc0:	bf18      	it	ne
 8003bc2:	42bb      	cmpne	r3, r7
 8003bc4:	d003      	beq.n	8003bce <HAL_TIM_PWM_ConfigChannel+0x92>
 8003bc6:	f506 6680 	add.w	r6, r6, #1024	; 0x400
 8003bca:	42b3      	cmp	r3, r6
 8003bcc:	d104      	bne.n	8003bd8 <HAL_TIM_PWM_ConfigChannel+0x9c>
 8003bce:	f420 4080 	bic.w	r0, r0, #16384	; 0x4000
 8003bd2:	696e      	ldr	r6, [r5, #20]
 8003bd4:	ea40 1086 	orr.w	r0, r0, r6, lsl #6
 8003bd8:	686e      	ldr	r6, [r5, #4]
 8003bda:	6058      	str	r0, [r3, #4]
 8003bdc:	61d9      	str	r1, [r3, #28]
 8003bde:	641e      	str	r6, [r3, #64]	; 0x40
 8003be0:	621a      	str	r2, [r3, #32]
 8003be2:	69d9      	ldr	r1, [r3, #28]
 8003be4:	6928      	ldr	r0, [r5, #16]
 8003be6:	f441 6100 	orr.w	r1, r1, #2048	; 0x800
 8003bea:	61d9      	str	r1, [r3, #28]
 8003bec:	69d9      	ldr	r1, [r3, #28]
 8003bee:	f421 6180 	bic.w	r1, r1, #1024	; 0x400
 8003bf2:	61d9      	str	r1, [r3, #28]
 8003bf4:	69da      	ldr	r2, [r3, #28]
 8003bf6:	ea42 2200 	orr.w	r2, r2, r0, lsl #8
 8003bfa:	61da      	str	r2, [r3, #28]
 8003bfc:	2000      	movs	r0, #0
 8003bfe:	f884 003c 	strb.w	r0, [r4, #60]	; 0x3c
 8003c02:	bdf8      	pop	{r3, r4, r5, r6, r7, pc}
 8003c04:	6803      	ldr	r3, [r0, #0]
 8003c06:	f8d1 c008 	ldr.w	ip, [r1, #8]
 8003c0a:	6a18      	ldr	r0, [r3, #32]
 8003c0c:	680f      	ldr	r7, [r1, #0]
 8003c0e:	f420 1080 	bic.w	r0, r0, #1048576	; 0x100000
 8003c12:	4e5b      	ldr	r6, [pc, #364]	; (8003d80 <HAL_TIM_PWM_ConfigChannel+0x244>)
 8003c14:	6218      	str	r0, [r3, #32]
 8003c16:	42b3      	cmp	r3, r6
 8003c18:	6a1a      	ldr	r2, [r3, #32]
 8003c1a:	6858      	ldr	r0, [r3, #4]
 8003c1c:	6d59      	ldr	r1, [r3, #84]	; 0x54
 8003c1e:	f422 1200 	bic.w	r2, r2, #2097152	; 0x200000
 8003c22:	f421 41e0 	bic.w	r1, r1, #28672	; 0x7000
 8003c26:	ea42 520c 	orr.w	r2, r2, ip, lsl #20
 8003c2a:	ea41 2107 	orr.w	r1, r1, r7, lsl #8
 8003c2e:	d00e      	beq.n	8003c4e <HAL_TIM_PWM_ConfigChannel+0x112>
 8003c30:	f506 6680 	add.w	r6, r6, #1024	; 0x400
 8003c34:	42b3      	cmp	r3, r6
 8003c36:	d00a      	beq.n	8003c4e <HAL_TIM_PWM_ConfigChannel+0x112>
 8003c38:	4f52      	ldr	r7, [pc, #328]	; (8003d84 <HAL_TIM_PWM_ConfigChannel+0x248>)
 8003c3a:	f506 4680 	add.w	r6, r6, #16384	; 0x4000
 8003c3e:	42b3      	cmp	r3, r6
 8003c40:	bf18      	it	ne
 8003c42:	42bb      	cmpne	r3, r7
 8003c44:	d003      	beq.n	8003c4e <HAL_TIM_PWM_ConfigChannel+0x112>
 8003c46:	f506 6680 	add.w	r6, r6, #1024	; 0x400
 8003c4a:	42b3      	cmp	r3, r6
 8003c4c:	d104      	bne.n	8003c58 <HAL_TIM_PWM_ConfigChannel+0x11c>
 8003c4e:	f420 3000 	bic.w	r0, r0, #131072	; 0x20000
 8003c52:	696e      	ldr	r6, [r5, #20]
 8003c54:	ea40 2086 	orr.w	r0, r0, r6, lsl #10
 8003c58:	686e      	ldr	r6, [r5, #4]
 8003c5a:	6058      	str	r0, [r3, #4]
 8003c5c:	6559      	str	r1, [r3, #84]	; 0x54
 8003c5e:	65de      	str	r6, [r3, #92]	; 0x5c
 8003c60:	621a      	str	r2, [r3, #32]
 8003c62:	6d59      	ldr	r1, [r3, #84]	; 0x54
 8003c64:	6928      	ldr	r0, [r5, #16]
 8003c66:	f441 6100 	orr.w	r1, r1, #2048	; 0x800
 8003c6a:	6559      	str	r1, [r3, #84]	; 0x54
 8003c6c:	6d59      	ldr	r1, [r3, #84]	; 0x54
 8003c6e:	f421 6180 	bic.w	r1, r1, #1024	; 0x400
 8003c72:	6559      	str	r1, [r3, #84]	; 0x54
 8003c74:	6d5a      	ldr	r2, [r3, #84]	; 0x54
 8003c76:	ea42 2200 	orr.w	r2, r2, r0, lsl #8
 8003c7a:	2000      	movs	r0, #0
 8003c7c:	655a      	str	r2, [r3, #84]	; 0x54
 8003c7e:	f884 003c 	strb.w	r0, [r4, #60]	; 0x3c
 8003c82:	e7be      	b.n	8003c02 <HAL_TIM_PWM_ConfigChannel+0xc6>
 8003c84:	6800      	ldr	r0, [r0, #0]
 8003c86:	f7ff f9f9 	bl	800307c <TIM_OC1_SetConfig>
 8003c8a:	6823      	ldr	r3, [r4, #0]
 8003c8c:	6908      	ldr	r0, [r1, #16]
 8003c8e:	6999      	ldr	r1, [r3, #24]
 8003c90:	f041 0108 	orr.w	r1, r1, #8
 8003c94:	6199      	str	r1, [r3, #24]
 8003c96:	6999      	ldr	r1, [r3, #24]
 8003c98:	f021 0104 	bic.w	r1, r1, #4
 8003c9c:	6199      	str	r1, [r3, #24]
 8003c9e:	699a      	ldr	r2, [r3, #24]
 8003ca0:	4302      	orrs	r2, r0
 8003ca2:	2000      	movs	r0, #0
 8003ca4:	619a      	str	r2, [r3, #24]
 8003ca6:	f884 003c 	strb.w	r0, [r4, #60]	; 0x3c
 8003caa:	e7aa      	b.n	8003c02 <HAL_TIM_PWM_ConfigChannel+0xc6>
 8003cac:	6800      	ldr	r0, [r0, #0]
 8003cae:	f7ff fe33 	bl	8003918 <TIM_OC2_SetConfig>
 8003cb2:	6823      	ldr	r3, [r4, #0]
 8003cb4:	6928      	ldr	r0, [r5, #16]
 8003cb6:	6999      	ldr	r1, [r3, #24]
 8003cb8:	f441 6100 	orr.w	r1, r1, #2048	; 0x800
 8003cbc:	6199      	str	r1, [r3, #24]
 8003cbe:	6999      	ldr	r1, [r3, #24]
 8003cc0:	f421 6180 	bic.w	r1, r1, #1024	; 0x400
 8003cc4:	6199      	str	r1, [r3, #24]
 8003cc6:	699a      	ldr	r2, [r3, #24]
 8003cc8:	ea42 2200 	orr.w	r2, r2, r0, lsl #8
 8003ccc:	2000      	movs	r0, #0
 8003cce:	619a      	str	r2, [r3, #24]
 8003cd0:	f884 003c 	strb.w	r0, [r4, #60]	; 0x3c
 8003cd4:	e795      	b.n	8003c02 <HAL_TIM_PWM_ConfigChannel+0xc6>
 8003cd6:	6800      	ldr	r0, [r0, #0]
 8003cd8:	f7ff fa10 	bl	80030fc <TIM_OC3_SetConfig>
 8003cdc:	6823      	ldr	r3, [r4, #0]
 8003cde:	6928      	ldr	r0, [r5, #16]
 8003ce0:	69d9      	ldr	r1, [r3, #28]
 8003ce2:	f041 0108 	orr.w	r1, r1, #8
 8003ce6:	61d9      	str	r1, [r3, #28]
 8003ce8:	69d9      	ldr	r1, [r3, #28]
 8003cea:	f021 0104 	bic.w	r1, r1, #4
 8003cee:	61d9      	str	r1, [r3, #28]
 8003cf0:	69da      	ldr	r2, [r3, #28]
 8003cf2:	4302      	orrs	r2, r0
 8003cf4:	2000      	movs	r0, #0
 8003cf6:	61da      	str	r2, [r3, #28]
 8003cf8:	f884 003c 	strb.w	r0, [r4, #60]	; 0x3c
 8003cfc:	e781      	b.n	8003c02 <HAL_TIM_PWM_ConfigChannel+0xc6>
 8003cfe:	6803      	ldr	r3, [r0, #0]
 8003d00:	f8d1 c008 	ldr.w	ip, [r1, #8]
 8003d04:	6a18      	ldr	r0, [r3, #32]
 8003d06:	680f      	ldr	r7, [r1, #0]
 8003d08:	f420 3080 	bic.w	r0, r0, #65536	; 0x10000
 8003d0c:	4e1c      	ldr	r6, [pc, #112]	; (8003d80 <HAL_TIM_PWM_ConfigChannel+0x244>)
 8003d0e:	6218      	str	r0, [r3, #32]
 8003d10:	42b3      	cmp	r3, r6
 8003d12:	6a1a      	ldr	r2, [r3, #32]
 8003d14:	6858      	ldr	r0, [r3, #4]
 8003d16:	6d59      	ldr	r1, [r3, #84]	; 0x54
 8003d18:	f422 3200 	bic.w	r2, r2, #131072	; 0x20000
 8003d1c:	f021 0170 	bic.w	r1, r1, #112	; 0x70
 8003d20:	ea42 420c 	orr.w	r2, r2, ip, lsl #16
 8003d24:	ea41 0107 	orr.w	r1, r1, r7
 8003d28:	d00e      	beq.n	8003d48 <HAL_TIM_PWM_ConfigChannel+0x20c>
 8003d2a:	f506 6680 	add.w	r6, r6, #1024	; 0x400
 8003d2e:	42b3      	cmp	r3, r6
 8003d30:	d00a      	beq.n	8003d48 <HAL_TIM_PWM_ConfigChannel+0x20c>
 8003d32:	4f14      	ldr	r7, [pc, #80]	; (8003d84 <HAL_TIM_PWM_ConfigChannel+0x248>)
 8003d34:	f506 4680 	add.w	r6, r6, #16384	; 0x4000
 8003d38:	42b3      	cmp	r3, r6
 8003d3a:	bf18      	it	ne
 8003d3c:	42bb      	cmpne	r3, r7
 8003d3e:	d003      	beq.n	8003d48 <HAL_TIM_PWM_ConfigChannel+0x20c>
 8003d40:	f506 6680 	add.w	r6, r6, #1024	; 0x400
 8003d44:	42b3      	cmp	r3, r6
 8003d46:	d104      	bne.n	8003d52 <HAL_TIM_PWM_ConfigChannel+0x216>
 8003d48:	f420 3080 	bic.w	r0, r0, #65536	; 0x10000
 8003d4c:	696e      	ldr	r6, [r5, #20]
 8003d4e:	ea40 2006 	orr.w	r0, r0, r6, lsl #8
 8003d52:	686e      	ldr	r6, [r5, #4]
 8003d54:	6058      	str	r0, [r3, #4]
 8003d56:	6559      	str	r1, [r3, #84]	; 0x54
 8003d58:	659e      	str	r6, [r3, #88]	; 0x58
 8003d5a:	621a      	str	r2, [r3, #32]
 8003d5c:	6d59      	ldr	r1, [r3, #84]	; 0x54
 8003d5e:	6928      	ldr	r0, [r5, #16]
 8003d60:	f041 0108 	orr.w	r1, r1, #8
 8003d64:	6559      	str	r1, [r3, #84]	; 0x54
 8003d66:	6d59      	ldr	r1, [r3, #84]	; 0x54
 8003d68:	f021 0104 	bic.w	r1, r1, #4
 8003d6c:	6559      	str	r1, [r3, #84]	; 0x54
 8003d6e:	6d5a      	ldr	r2, [r3, #84]	; 0x54
 8003d70:	4302      	orrs	r2, r0
 8003d72:	2000      	movs	r0, #0
 8003d74:	655a      	str	r2, [r3, #84]	; 0x54
 8003d76:	f884 003c 	strb.w	r0, [r4, #60]	; 0x3c
 8003d7a:	e742      	b.n	8003c02 <HAL_TIM_PWM_ConfigChannel+0xc6>
 8003d7c:	2002      	movs	r0, #2
 8003d7e:	bdf8      	pop	{r3, r4, r5, r6, r7, pc}
 8003d80:	40010000 	.word	0x40010000
 8003d84:	40014000 	.word	0x40014000

08003d88 <HAL_TIMEx_ConfigBreakDeadTime>:
 8003d88:	f890 303c 	ldrb.w	r3, [r0, #60]	; 0x3c
 8003d8c:	2b01      	cmp	r3, #1
 8003d8e:	d03c      	beq.n	8003e0a <HAL_TIMEx_ConfigBreakDeadTime+0x82>
 8003d90:	b470      	push	{r4, r5, r6}
 8003d92:	4605      	mov	r5, r0
 8003d94:	690e      	ldr	r6, [r1, #16]
 8003d96:	e9d1 0302 	ldrd	r0, r3, [r1, #8]
 8003d9a:	e9d1 2400 	ldrd	r2, r4, [r1]
 8003d9e:	f423 7340 	bic.w	r3, r3, #768	; 0x300
 8003da2:	4303      	orrs	r3, r0
 8003da4:	6948      	ldr	r0, [r1, #20]
 8003da6:	f423 6380 	bic.w	r3, r3, #1024	; 0x400
 8003daa:	4323      	orrs	r3, r4
 8003dac:	6a8c      	ldr	r4, [r1, #40]	; 0x28
 8003dae:	f423 6300 	bic.w	r3, r3, #2048	; 0x800
 8003db2:	4313      	orrs	r3, r2
 8003db4:	698a      	ldr	r2, [r1, #24]
 8003db6:	f423 5380 	bic.w	r3, r3, #4096	; 0x1000
 8003dba:	4333      	orrs	r3, r6
 8003dbc:	682e      	ldr	r6, [r5, #0]
 8003dbe:	f423 5300 	bic.w	r3, r3, #8192	; 0x2000
 8003dc2:	4303      	orrs	r3, r0
 8003dc4:	4812      	ldr	r0, [pc, #72]	; (8003e10 <HAL_TIMEx_ConfigBreakDeadTime+0x88>)
 8003dc6:	f423 4380 	bic.w	r3, r3, #16384	; 0x4000
 8003dca:	4286      	cmp	r6, r0
 8003dcc:	ea43 0304 	orr.w	r3, r3, r4
 8003dd0:	f423 2370 	bic.w	r3, r3, #983040	; 0xf0000
 8003dd4:	ea43 4302 	orr.w	r3, r3, r2, lsl #16
 8003dd8:	d009      	beq.n	8003dee <HAL_TIMEx_ConfigBreakDeadTime+0x66>
 8003dda:	4a0e      	ldr	r2, [pc, #56]	; (8003e14 <HAL_TIMEx_ConfigBreakDeadTime+0x8c>)
 8003ddc:	4296      	cmp	r6, r2
 8003dde:	d006      	beq.n	8003dee <HAL_TIMEx_ConfigBreakDeadTime+0x66>
 8003de0:	2200      	movs	r2, #0
 8003de2:	6473      	str	r3, [r6, #68]	; 0x44
 8003de4:	4610      	mov	r0, r2
 8003de6:	f885 203c 	strb.w	r2, [r5, #60]	; 0x3c
 8003dea:	bc70      	pop	{r4, r5, r6}
 8003dec:	4770      	bx	lr
 8003dee:	6a4a      	ldr	r2, [r1, #36]	; 0x24
 8003df0:	f423 0370 	bic.w	r3, r3, #15728640	; 0xf00000
 8003df4:	69c8      	ldr	r0, [r1, #28]
 8003df6:	ea43 5302 	orr.w	r3, r3, r2, lsl #20
 8003dfa:	6a0a      	ldr	r2, [r1, #32]
 8003dfc:	f023 7380 	bic.w	r3, r3, #16777216	; 0x1000000
 8003e00:	4303      	orrs	r3, r0
 8003e02:	f023 7300 	bic.w	r3, r3, #33554432	; 0x2000000
 8003e06:	4313      	orrs	r3, r2
 8003e08:	e7ea      	b.n	8003de0 <HAL_TIMEx_ConfigBreakDeadTime+0x58>
 8003e0a:	2002      	movs	r0, #2
 8003e0c:	4770      	bx	lr
 8003e0e:	bf00      	nop
 8003e10:	40010000 	.word	0x40010000
 8003e14:	40010400 	.word	0x40010400

08003e18 <HAL_TIMEx_CommutCallback>:
 8003e18:	4770      	bx	lr
 8003e1a:	bf00      	nop

08003e1c <HAL_TIMEx_BreakCallback>:
 8003e1c:	4770      	bx	lr
 8003e1e:	bf00      	nop

08003e20 <HAL_TIMEx_Break2Callback>:
 8003e20:	4770      	bx	lr
 8003e22:	bf00      	nop

08003e24 <__libc_init_array>:
 8003e24:	b570      	push	{r4, r5, r6, lr}
 8003e26:	4d0d      	ldr	r5, [pc, #52]	; (8003e5c <__libc_init_array+0x38>)
 8003e28:	4c0d      	ldr	r4, [pc, #52]	; (8003e60 <__libc_init_array+0x3c>)
 8003e2a:	1b64      	subs	r4, r4, r5
 8003e2c:	10a4      	asrs	r4, r4, #2
 8003e2e:	2600      	movs	r6, #0
 8003e30:	42a6      	cmp	r6, r4
 8003e32:	d109      	bne.n	8003e48 <__libc_init_array+0x24>
 8003e34:	4d0b      	ldr	r5, [pc, #44]	; (8003e64 <__libc_init_array+0x40>)
 8003e36:	4c0c      	ldr	r4, [pc, #48]	; (8003e68 <__libc_init_array+0x44>)
 8003e38:	f000 fe00 	bl	8004a3c <_init>
 8003e3c:	1b64      	subs	r4, r4, r5
 8003e3e:	10a4      	asrs	r4, r4, #2
 8003e40:	2600      	movs	r6, #0
 8003e42:	42a6      	cmp	r6, r4
 8003e44:	d105      	bne.n	8003e52 <__libc_init_array+0x2e>
 8003e46:	bd70      	pop	{r4, r5, r6, pc}
 8003e48:	f855 3b04 	ldr.w	r3, [r5], #4
 8003e4c:	4798      	blx	r3
 8003e4e:	3601      	adds	r6, #1
 8003e50:	e7ee      	b.n	8003e30 <__libc_init_array+0xc>
 8003e52:	f855 3b04 	ldr.w	r3, [r5], #4
 8003e56:	4798      	blx	r3
 8003e58:	3601      	adds	r6, #1
 8003e5a:	e7f2      	b.n	8003e42 <__libc_init_array+0x1e>
 8003e5c:	08004c40 	.word	0x08004c40
 8003e60:	08004c40 	.word	0x08004c40
 8003e64:	08004c40 	.word	0x08004c40
 8003e68:	08004c44 	.word	0x08004c44

08003e6c <memset>:
 8003e6c:	4402      	add	r2, r0
 8003e6e:	4603      	mov	r3, r0
 8003e70:	4293      	cmp	r3, r2
 8003e72:	d100      	bne.n	8003e76 <memset+0xa>
 8003e74:	4770      	bx	lr
 8003e76:	f803 1b01 	strb.w	r1, [r3], #1
 8003e7a:	e7f9      	b.n	8003e70 <memset+0x4>
 8003e7c:	0000      	movs	r0, r0
	...

08003e80 <sin>:
 8003e80:	b51f      	push	{r0, r1, r2, r3, r4, lr}
 8003e82:	eeb0 7b40 	vmov.f64	d7, d0
 8003e86:	ee17 3a90 	vmov	r3, s15
 8003e8a:	4a1f      	ldr	r2, [pc, #124]	; (8003f08 <sin+0x88>)
 8003e8c:	f023 4300 	bic.w	r3, r3, #2147483648	; 0x80000000
 8003e90:	4293      	cmp	r3, r2
 8003e92:	dc05      	bgt.n	8003ea0 <sin+0x20>
 8003e94:	ed9f 1b1a 	vldr	d1, [pc, #104]	; 8003f00 <sin+0x80>
 8003e98:	2000      	movs	r0, #0
 8003e9a:	f000 fc65 	bl	8004768 <__kernel_sin>
 8003e9e:	e004      	b.n	8003eaa <sin+0x2a>
 8003ea0:	4a1a      	ldr	r2, [pc, #104]	; (8003f0c <sin+0x8c>)
 8003ea2:	4293      	cmp	r3, r2
 8003ea4:	dd04      	ble.n	8003eb0 <sin+0x30>
 8003ea6:	ee30 0b40 	vsub.f64	d0, d0, d0
 8003eaa:	b005      	add	sp, #20
 8003eac:	f85d fb04 	ldr.w	pc, [sp], #4
 8003eb0:	4668      	mov	r0, sp
 8003eb2:	f000 f82d 	bl	8003f10 <__ieee754_rem_pio2>
 8003eb6:	f000 0003 	and.w	r0, r0, #3
 8003eba:	2801      	cmp	r0, #1
 8003ebc:	d008      	beq.n	8003ed0 <sin+0x50>
 8003ebe:	2802      	cmp	r0, #2
 8003ec0:	d00d      	beq.n	8003ede <sin+0x5e>
 8003ec2:	b9b0      	cbnz	r0, 8003ef2 <sin+0x72>
 8003ec4:	ed9d 1b02 	vldr	d1, [sp, #8]
 8003ec8:	ed9d 0b00 	vldr	d0, [sp]
 8003ecc:	2001      	movs	r0, #1
 8003ece:	e7e4      	b.n	8003e9a <sin+0x1a>
 8003ed0:	ed9d 1b02 	vldr	d1, [sp, #8]
 8003ed4:	ed9d 0b00 	vldr	d0, [sp]
 8003ed8:	f000 f95a 	bl	8004190 <__kernel_cos>
 8003edc:	e7e5      	b.n	8003eaa <sin+0x2a>
 8003ede:	ed9d 1b02 	vldr	d1, [sp, #8]
 8003ee2:	ed9d 0b00 	vldr	d0, [sp]
 8003ee6:	2001      	movs	r0, #1
 8003ee8:	f000 fc3e 	bl	8004768 <__kernel_sin>
 8003eec:	eeb1 0b40 	vneg.f64	d0, d0
 8003ef0:	e7db      	b.n	8003eaa <sin+0x2a>
 8003ef2:	ed9d 1b02 	vldr	d1, [sp, #8]
 8003ef6:	ed9d 0b00 	vldr	d0, [sp]
 8003efa:	f000 f949 	bl	8004190 <__kernel_cos>
 8003efe:	e7f5      	b.n	8003eec <sin+0x6c>
	...
 8003f08:	3fe921fb 	.word	0x3fe921fb
 8003f0c:	7fefffff 	.word	0x7fefffff

08003f10 <__ieee754_rem_pio2>:
 8003f10:	b570      	push	{r4, r5, r6, lr}
 8003f12:	eeb0 7b40 	vmov.f64	d7, d0
 8003f16:	ee17 5a90 	vmov	r5, s15
 8003f1a:	4b97      	ldr	r3, [pc, #604]	; (8004178 <__ieee754_rem_pio2+0x268>)
 8003f1c:	f025 4600 	bic.w	r6, r5, #2147483648	; 0x80000000
 8003f20:	429e      	cmp	r6, r3
 8003f22:	b088      	sub	sp, #32
 8003f24:	4604      	mov	r4, r0
 8003f26:	dc07      	bgt.n	8003f38 <__ieee754_rem_pio2+0x28>
 8003f28:	2200      	movs	r2, #0
 8003f2a:	2300      	movs	r3, #0
 8003f2c:	ed84 0b00 	vstr	d0, [r4]
 8003f30:	e9c0 2302 	strd	r2, r3, [r0, #8]
 8003f34:	2000      	movs	r0, #0
 8003f36:	e01b      	b.n	8003f70 <__ieee754_rem_pio2+0x60>
 8003f38:	4b90      	ldr	r3, [pc, #576]	; (800417c <__ieee754_rem_pio2+0x26c>)
 8003f3a:	429e      	cmp	r6, r3
 8003f3c:	dc3b      	bgt.n	8003fb6 <__ieee754_rem_pio2+0xa6>
 8003f3e:	f5a3 231b 	sub.w	r3, r3, #634880	; 0x9b000
 8003f42:	2d00      	cmp	r5, #0
 8003f44:	ed9f 6b7c 	vldr	d6, [pc, #496]	; 8004138 <__ieee754_rem_pio2+0x228>
 8003f48:	f5a3 63f0 	sub.w	r3, r3, #1920	; 0x780
 8003f4c:	dd19      	ble.n	8003f82 <__ieee754_rem_pio2+0x72>
 8003f4e:	ee30 7b46 	vsub.f64	d7, d0, d6
 8003f52:	429e      	cmp	r6, r3
 8003f54:	d00e      	beq.n	8003f74 <__ieee754_rem_pio2+0x64>
 8003f56:	ed9f 6b7a 	vldr	d6, [pc, #488]	; 8004140 <__ieee754_rem_pio2+0x230>
 8003f5a:	ee37 5b46 	vsub.f64	d5, d7, d6
 8003f5e:	ee37 7b45 	vsub.f64	d7, d7, d5
 8003f62:	ed84 5b00 	vstr	d5, [r4]
 8003f66:	ee37 7b46 	vsub.f64	d7, d7, d6
 8003f6a:	ed84 7b02 	vstr	d7, [r4, #8]
 8003f6e:	2001      	movs	r0, #1
 8003f70:	b008      	add	sp, #32
 8003f72:	bd70      	pop	{r4, r5, r6, pc}
 8003f74:	ed9f 6b74 	vldr	d6, [pc, #464]	; 8004148 <__ieee754_rem_pio2+0x238>
 8003f78:	ee37 7b46 	vsub.f64	d7, d7, d6
 8003f7c:	ed9f 6b74 	vldr	d6, [pc, #464]	; 8004150 <__ieee754_rem_pio2+0x240>
 8003f80:	e7eb      	b.n	8003f5a <__ieee754_rem_pio2+0x4a>
 8003f82:	429e      	cmp	r6, r3
 8003f84:	ee30 7b06 	vadd.f64	d7, d0, d6
 8003f88:	d00e      	beq.n	8003fa8 <__ieee754_rem_pio2+0x98>
 8003f8a:	ed9f 6b6d 	vldr	d6, [pc, #436]	; 8004140 <__ieee754_rem_pio2+0x230>
 8003f8e:	ee37 5b06 	vadd.f64	d5, d7, d6
 8003f92:	ee37 7b45 	vsub.f64	d7, d7, d5
 8003f96:	ed84 5b00 	vstr	d5, [r4]
 8003f9a:	ee37 7b06 	vadd.f64	d7, d7, d6
 8003f9e:	f04f 30ff 	mov.w	r0, #4294967295
 8003fa2:	ed84 7b02 	vstr	d7, [r4, #8]
 8003fa6:	e7e3      	b.n	8003f70 <__ieee754_rem_pio2+0x60>
 8003fa8:	ed9f 6b67 	vldr	d6, [pc, #412]	; 8004148 <__ieee754_rem_pio2+0x238>
 8003fac:	ee37 7b06 	vadd.f64	d7, d7, d6
 8003fb0:	ed9f 6b67 	vldr	d6, [pc, #412]	; 8004150 <__ieee754_rem_pio2+0x240>
 8003fb4:	e7eb      	b.n	8003f8e <__ieee754_rem_pio2+0x7e>
 8003fb6:	4b72      	ldr	r3, [pc, #456]	; (8004180 <__ieee754_rem_pio2+0x270>)
 8003fb8:	429e      	cmp	r6, r3
 8003fba:	dc6e      	bgt.n	800409a <__ieee754_rem_pio2+0x18a>
 8003fbc:	f000 fc2c 	bl	8004818 <fabs>
 8003fc0:	eeb6 7b00 	vmov.f64	d7, #96	; 0x3f000000  0.5
 8003fc4:	ed9f 6b64 	vldr	d6, [pc, #400]	; 8004158 <__ieee754_rem_pio2+0x248>
 8003fc8:	eea0 7b06 	vfma.f64	d7, d0, d6
 8003fcc:	eefd 7bc7 	vcvt.s32.f64	s15, d7
 8003fd0:	eeb8 5be7 	vcvt.f64.s32	d5, s15
 8003fd4:	ee17 0a90 	vmov	r0, s15
 8003fd8:	eeb1 4b45 	vneg.f64	d4, d5
 8003fdc:	ed9f 7b56 	vldr	d7, [pc, #344]	; 8004138 <__ieee754_rem_pio2+0x228>
 8003fe0:	eea5 0b47 	vfms.f64	d0, d5, d7
 8003fe4:	ed9f 7b56 	vldr	d7, [pc, #344]	; 8004140 <__ieee754_rem_pio2+0x230>
 8003fe8:	281f      	cmp	r0, #31
 8003fea:	ee25 7b07 	vmul.f64	d7, d5, d7
 8003fee:	ee30 6b47 	vsub.f64	d6, d0, d7
 8003ff2:	dc08      	bgt.n	8004006 <__ieee754_rem_pio2+0xf6>
 8003ff4:	4b63      	ldr	r3, [pc, #396]	; (8004184 <__ieee754_rem_pio2+0x274>)
 8003ff6:	1e42      	subs	r2, r0, #1
 8003ff8:	f853 3022 	ldr.w	r3, [r3, r2, lsl #2]
 8003ffc:	42b3      	cmp	r3, r6
 8003ffe:	d002      	beq.n	8004006 <__ieee754_rem_pio2+0xf6>
 8004000:	ed84 6b00 	vstr	d6, [r4]
 8004004:	e024      	b.n	8004050 <__ieee754_rem_pio2+0x140>
 8004006:	ee16 3a90 	vmov	r3, s13
 800400a:	f3c3 530a 	ubfx	r3, r3, #20, #11
 800400e:	ebc3 5316 	rsb	r3, r3, r6, lsr #20
 8004012:	2b10      	cmp	r3, #16
 8004014:	ea4f 5226 	mov.w	r2, r6, asr #20
 8004018:	ddf2      	ble.n	8004000 <__ieee754_rem_pio2+0xf0>
 800401a:	eeb0 6b40 	vmov.f64	d6, d0
 800401e:	ed9f 3b4a 	vldr	d3, [pc, #296]	; 8004148 <__ieee754_rem_pio2+0x238>
 8004022:	eea4 6b03 	vfma.f64	d6, d4, d3
 8004026:	ee30 7b46 	vsub.f64	d7, d0, d6
 800402a:	eea4 7b03 	vfma.f64	d7, d4, d3
 800402e:	ed9f 3b48 	vldr	d3, [pc, #288]	; 8004150 <__ieee754_rem_pio2+0x240>
 8004032:	ee95 7b03 	vfnms.f64	d7, d5, d3
 8004036:	ee36 3b47 	vsub.f64	d3, d6, d7
 800403a:	ee13 3a90 	vmov	r3, s7
 800403e:	f3c3 530a 	ubfx	r3, r3, #20, #11
 8004042:	1ad3      	subs	r3, r2, r3
 8004044:	2b31      	cmp	r3, #49	; 0x31
 8004046:	dc17      	bgt.n	8004078 <__ieee754_rem_pio2+0x168>
 8004048:	eeb0 0b46 	vmov.f64	d0, d6
 800404c:	ed84 3b00 	vstr	d3, [r4]
 8004050:	ed94 6b00 	vldr	d6, [r4]
 8004054:	2d00      	cmp	r5, #0
 8004056:	ee30 0b46 	vsub.f64	d0, d0, d6
 800405a:	ee30 7b47 	vsub.f64	d7, d0, d7
 800405e:	ed84 7b02 	vstr	d7, [r4, #8]
 8004062:	da85      	bge.n	8003f70 <__ieee754_rem_pio2+0x60>
 8004064:	eeb1 6b46 	vneg.f64	d6, d6
 8004068:	ed84 6b00 	vstr	d6, [r4]
 800406c:	eeb1 7b47 	vneg.f64	d7, d7
 8004070:	4240      	negs	r0, r0
 8004072:	ed84 7b02 	vstr	d7, [r4, #8]
 8004076:	e77b      	b.n	8003f70 <__ieee754_rem_pio2+0x60>
 8004078:	ed9f 3b39 	vldr	d3, [pc, #228]	; 8004160 <__ieee754_rem_pio2+0x250>
 800407c:	eeb0 0b46 	vmov.f64	d0, d6
 8004080:	eea4 0b03 	vfma.f64	d0, d4, d3
 8004084:	ee36 7b40 	vsub.f64	d7, d6, d0
 8004088:	ed9f 6b37 	vldr	d6, [pc, #220]	; 8004168 <__ieee754_rem_pio2+0x258>
 800408c:	eea4 7b03 	vfma.f64	d7, d4, d3
 8004090:	ee95 7b06 	vfnms.f64	d7, d5, d6
 8004094:	ee30 6b47 	vsub.f64	d6, d0, d7
 8004098:	e7b2      	b.n	8004000 <__ieee754_rem_pio2+0xf0>
 800409a:	4b3b      	ldr	r3, [pc, #236]	; (8004188 <__ieee754_rem_pio2+0x278>)
 800409c:	429e      	cmp	r6, r3
 800409e:	dd06      	ble.n	80040ae <__ieee754_rem_pio2+0x19e>
 80040a0:	ee30 7b40 	vsub.f64	d7, d0, d0
 80040a4:	ed80 7b02 	vstr	d7, [r0, #8]
 80040a8:	ed80 7b00 	vstr	d7, [r0]
 80040ac:	e742      	b.n	8003f34 <__ieee754_rem_pio2+0x24>
 80040ae:	1532      	asrs	r2, r6, #20
 80040b0:	ee10 0a10 	vmov	r0, s0
 80040b4:	f2a2 4216 	subw	r2, r2, #1046	; 0x416
 80040b8:	eba6 5102 	sub.w	r1, r6, r2, lsl #20
 80040bc:	ec41 0b17 	vmov	d7, r0, r1
 80040c0:	eebd 6bc7 	vcvt.s32.f64	s12, d7
 80040c4:	ed9f 5b2a 	vldr	d5, [pc, #168]	; 8004170 <__ieee754_rem_pio2+0x260>
 80040c8:	eeb8 6bc6 	vcvt.f64.s32	d6, s12
 80040cc:	ee37 7b46 	vsub.f64	d7, d7, d6
 80040d0:	ed8d 6b02 	vstr	d6, [sp, #8]
 80040d4:	ee27 7b05 	vmul.f64	d7, d7, d5
 80040d8:	eebd 6bc7 	vcvt.s32.f64	s12, d7
 80040dc:	a902      	add	r1, sp, #8
 80040de:	eeb8 6bc6 	vcvt.f64.s32	d6, s12
 80040e2:	ee37 7b46 	vsub.f64	d7, d7, d6
 80040e6:	ed8d 6b04 	vstr	d6, [sp, #16]
 80040ea:	ee27 7b05 	vmul.f64	d7, d7, d5
 80040ee:	ed8d 7b06 	vstr	d7, [sp, #24]
 80040f2:	2603      	movs	r6, #3
 80040f4:	4608      	mov	r0, r1
 80040f6:	ed91 7b04 	vldr	d7, [r1, #16]
 80040fa:	eeb5 7b40 	vcmp.f64	d7, #0.0
 80040fe:	eef1 fa10 	vmrs	APSR_nzcv, fpscr
 8004102:	4633      	mov	r3, r6
 8004104:	f1a1 0108 	sub.w	r1, r1, #8
 8004108:	f106 36ff 	add.w	r6, r6, #4294967295
 800410c:	d0f3      	beq.n	80040f6 <__ieee754_rem_pio2+0x1e6>
 800410e:	491f      	ldr	r1, [pc, #124]	; (800418c <__ieee754_rem_pio2+0x27c>)
 8004110:	9101      	str	r1, [sp, #4]
 8004112:	2102      	movs	r1, #2
 8004114:	9100      	str	r1, [sp, #0]
 8004116:	4621      	mov	r1, r4
 8004118:	f000 f8a6 	bl	8004268 <__kernel_rem_pio2>
 800411c:	2d00      	cmp	r5, #0
 800411e:	f6bf af27 	bge.w	8003f70 <__ieee754_rem_pio2+0x60>
 8004122:	ed94 7b00 	vldr	d7, [r4]
 8004126:	eeb1 7b47 	vneg.f64	d7, d7
 800412a:	ed84 7b00 	vstr	d7, [r4]
 800412e:	ed94 7b02 	vldr	d7, [r4, #8]
 8004132:	e79b      	b.n	800406c <__ieee754_rem_pio2+0x15c>
 8004134:	f3af 8000 	nop.w
 8004138:	54400000 	.word	0x54400000
 800413c:	3ff921fb 	.word	0x3ff921fb
 8004140:	1a626331 	.word	0x1a626331
 8004144:	3dd0b461 	.word	0x3dd0b461
 8004148:	1a600000 	.word	0x1a600000
 800414c:	3dd0b461 	.word	0x3dd0b461
 8004150:	2e037073 	.word	0x2e037073
 8004154:	3ba3198a 	.word	0x3ba3198a
 8004158:	6dc9c883 	.word	0x6dc9c883
 800415c:	3fe45f30 	.word	0x3fe45f30
 8004160:	2e000000 	.word	0x2e000000
 8004164:	3ba3198a 	.word	0x3ba3198a
 8004168:	252049c1 	.word	0x252049c1
 800416c:	397b839a 	.word	0x397b839a
 8004170:	00000000 	.word	0x00000000
 8004174:	41700000 	.word	0x41700000
 8004178:	3fe921fb 	.word	0x3fe921fb
 800417c:	4002d97b 	.word	0x4002d97b
 8004180:	413921fb 	.word	0x413921fb
 8004184:	08004a68 	.word	0x08004a68
 8004188:	7fefffff 	.word	0x7fefffff
 800418c:	08004ae8 	.word	0x08004ae8

08004190 <__kernel_cos>:
 8004190:	ee10 1a90 	vmov	r1, s1
 8004194:	eeb7 4b00 	vmov.f64	d4, #112	; 0x3f800000  1.0
 8004198:	f021 4100 	bic.w	r1, r1, #2147483648	; 0x80000000
 800419c:	f1b1 5f79 	cmp.w	r1, #1044381696	; 0x3e400000
 80041a0:	da05      	bge.n	80041ae <__kernel_cos+0x1e>
 80041a2:	eefd 7bc0 	vcvt.s32.f64	s15, d0
 80041a6:	ee17 3a90 	vmov	r3, s15
 80041aa:	2b00      	cmp	r3, #0
 80041ac:	d03d      	beq.n	800422a <__kernel_cos+0x9a>
 80041ae:	ee20 3b00 	vmul.f64	d3, d0, d0
 80041b2:	ed9f 7b1f 	vldr	d7, [pc, #124]	; 8004230 <__kernel_cos+0xa0>
 80041b6:	ed9f 6b20 	vldr	d6, [pc, #128]	; 8004238 <__kernel_cos+0xa8>
 80041ba:	eea3 6b07 	vfma.f64	d6, d3, d7
 80041be:	ed9f 7b20 	vldr	d7, [pc, #128]	; 8004240 <__kernel_cos+0xb0>
 80041c2:	eea6 7b03 	vfma.f64	d7, d6, d3
 80041c6:	ed9f 6b20 	vldr	d6, [pc, #128]	; 8004248 <__kernel_cos+0xb8>
 80041ca:	eea7 6b03 	vfma.f64	d6, d7, d3
 80041ce:	ed9f 7b20 	vldr	d7, [pc, #128]	; 8004250 <__kernel_cos+0xc0>
 80041d2:	4b23      	ldr	r3, [pc, #140]	; (8004260 <__kernel_cos+0xd0>)
 80041d4:	eea6 7b03 	vfma.f64	d7, d6, d3
 80041d8:	ed9f 6b1f 	vldr	d6, [pc, #124]	; 8004258 <__kernel_cos+0xc8>
 80041dc:	4299      	cmp	r1, r3
 80041de:	eea7 6b03 	vfma.f64	d6, d7, d3
 80041e2:	eeb6 7b00 	vmov.f64	d7, #96	; 0x3f000000  0.5
 80041e6:	ee26 5b03 	vmul.f64	d5, d6, d3
 80041ea:	ee23 7b07 	vmul.f64	d7, d3, d7
 80041ee:	ee21 6b40 	vnmul.f64	d6, d1, d0
 80041f2:	eea3 6b05 	vfma.f64	d6, d3, d5
 80041f6:	dc04      	bgt.n	8004202 <__kernel_cos+0x72>
 80041f8:	ee37 6b46 	vsub.f64	d6, d7, d6
 80041fc:	ee34 0b46 	vsub.f64	d0, d4, d6
 8004200:	4770      	bx	lr
 8004202:	4b18      	ldr	r3, [pc, #96]	; (8004264 <__kernel_cos+0xd4>)
 8004204:	4299      	cmp	r1, r3
 8004206:	dc0d      	bgt.n	8004224 <__kernel_cos+0x94>
 8004208:	2200      	movs	r2, #0
 800420a:	f5a1 1300 	sub.w	r3, r1, #2097152	; 0x200000
 800420e:	ec43 2b15 	vmov	d5, r2, r3
 8004212:	ee34 0b45 	vsub.f64	d0, d4, d5
 8004216:	ee37 7b45 	vsub.f64	d7, d7, d5
 800421a:	ee37 7b46 	vsub.f64	d7, d7, d6
 800421e:	ee30 0b47 	vsub.f64	d0, d0, d7
 8004222:	4770      	bx	lr
 8004224:	eeb5 5b02 	vmov.f64	d5, #82	; 0x3e900000  0.2812500
 8004228:	e7f3      	b.n	8004212 <__kernel_cos+0x82>
 800422a:	eeb0 0b44 	vmov.f64	d0, d4
 800422e:	4770      	bx	lr
 8004230:	be8838d4 	.word	0xbe8838d4
 8004234:	bda8fae9 	.word	0xbda8fae9
 8004238:	bdb4b1c4 	.word	0xbdb4b1c4
 800423c:	3e21ee9e 	.word	0x3e21ee9e
 8004240:	809c52ad 	.word	0x809c52ad
 8004244:	be927e4f 	.word	0xbe927e4f
 8004248:	19cb1590 	.word	0x19cb1590
 800424c:	3efa01a0 	.word	0x3efa01a0
 8004250:	16c15177 	.word	0x16c15177
 8004254:	bf56c16c 	.word	0xbf56c16c
 8004258:	5555554c 	.word	0x5555554c
 800425c:	3fa55555 	.word	0x3fa55555
 8004260:	3fd33332 	.word	0x3fd33332
 8004264:	3fe90000 	.word	0x3fe90000

08004268 <__kernel_rem_pio2>:
 8004268:	e92d 4ff0 	stmdb	sp!, {r4, r5, r6, r7, r8, r9, sl, fp, lr}
 800426c:	ed2d 8b06 	vpush	{d8-d10}
 8004270:	f5ad 7d11 	sub.w	sp, sp, #580	; 0x244
 8004274:	469b      	mov	fp, r3
 8004276:	460f      	mov	r7, r1
 8004278:	4bcf      	ldr	r3, [pc, #828]	; (80045b8 <__kernel_rem_pio2+0x350>)
 800427a:	99a0      	ldr	r1, [sp, #640]	; 0x280
 800427c:	f8dd c284 	ldr.w	ip, [sp, #644]	; 0x284
 8004280:	f853 9021 	ldr.w	r9, [r3, r1, lsl #2]
 8004284:	9000      	str	r0, [sp, #0]
 8004286:	f112 0f14 	cmn.w	r2, #20
 800428a:	bfa8      	it	ge
 800428c:	2318      	movge	r3, #24
 800428e:	f10b 31ff 	add.w	r1, fp, #4294967295
 8004292:	bfb8      	it	lt
 8004294:	2300      	movlt	r3, #0
 8004296:	f06f 0417 	mvn.w	r4, #23
 800429a:	ed9f 6bc1 	vldr	d6, [pc, #772]	; 80045a0 <__kernel_rem_pio2+0x338>
 800429e:	bfa4      	itt	ge
 80042a0:	f1a2 0a03 	subge.w	sl, r2, #3
 80042a4:	fb9a f3f3 	sdivge	r3, sl, r3
 80042a8:	fb03 4404 	mla	r4, r3, r4, r4
 80042ac:	1a5d      	subs	r5, r3, r1
 80042ae:	4414      	add	r4, r2
 80042b0:	eb09 0601 	add.w	r6, r9, r1
 80042b4:	f10d 0860 	add.w	r8, sp, #96	; 0x60
 80042b8:	eb0c 0e85 	add.w	lr, ip, r5, lsl #2
 80042bc:	2200      	movs	r2, #0
 80042be:	42b2      	cmp	r2, r6
 80042c0:	dd12      	ble.n	80042e8 <__kernel_rem_pio2+0x80>
 80042c2:	aa18      	add	r2, sp, #96	; 0x60
 80042c4:	eb02 02cb 	add.w	r2, r2, fp, lsl #3
 80042c8:	460e      	mov	r6, r1
 80042ca:	f50d 78d0 	add.w	r8, sp, #416	; 0x1a0
 80042ce:	f1cb 0a01 	rsb	sl, fp, #1
 80042d2:	eb0a 0006 	add.w	r0, sl, r6
 80042d6:	4581      	cmp	r9, r0
 80042d8:	db25      	blt.n	8004326 <__kernel_rem_pio2+0xbe>
 80042da:	ed9f 7bb1 	vldr	d7, [pc, #708]	; 80045a0 <__kernel_rem_pio2+0x338>
 80042de:	f8dd e000 	ldr.w	lr, [sp]
 80042e2:	4615      	mov	r5, r2
 80042e4:	2000      	movs	r0, #0
 80042e6:	e015      	b.n	8004314 <__kernel_rem_pio2+0xac>
 80042e8:	42d5      	cmn	r5, r2
 80042ea:	d409      	bmi.n	8004300 <__kernel_rem_pio2+0x98>
 80042ec:	f85e 0022 	ldr.w	r0, [lr, r2, lsl #2]
 80042f0:	ee07 0a90 	vmov	s15, r0
 80042f4:	eeb8 7be7 	vcvt.f64.s32	d7, s15
 80042f8:	eca8 7b02 	vstmia	r8!, {d7}
 80042fc:	3201      	adds	r2, #1
 80042fe:	e7de      	b.n	80042be <__kernel_rem_pio2+0x56>
 8004300:	eeb0 7b46 	vmov.f64	d7, d6
 8004304:	e7f8      	b.n	80042f8 <__kernel_rem_pio2+0x90>
 8004306:	ecbe 5b02 	vldmia	lr!, {d5}
 800430a:	ed95 6b00 	vldr	d6, [r5]
 800430e:	3001      	adds	r0, #1
 8004310:	eea5 7b06 	vfma.f64	d7, d5, d6
 8004314:	4288      	cmp	r0, r1
 8004316:	f1a5 0508 	sub.w	r5, r5, #8
 800431a:	ddf4      	ble.n	8004306 <__kernel_rem_pio2+0x9e>
 800431c:	eca8 7b02 	vstmia	r8!, {d7}
 8004320:	3208      	adds	r2, #8
 8004322:	3601      	adds	r6, #1
 8004324:	e7d5      	b.n	80042d2 <__kernel_rem_pio2+0x6a>
 8004326:	aa04      	add	r2, sp, #16
 8004328:	ed9f 9b9f 	vldr	d9, [pc, #636]	; 80045a8 <__kernel_rem_pio2+0x340>
 800432c:	ed9f aba0 	vldr	d10, [pc, #640]	; 80045b0 <__kernel_rem_pio2+0x348>
 8004330:	eb02 0289 	add.w	r2, r2, r9, lsl #2
 8004334:	9201      	str	r2, [sp, #4]
 8004336:	eb0c 0a83 	add.w	sl, ip, r3, lsl #2
 800433a:	464e      	mov	r6, r9
 800433c:	ab90      	add	r3, sp, #576	; 0x240
 800433e:	eb03 03c6 	add.w	r3, r3, r6, lsl #3
 8004342:	ed13 0b28 	vldr	d0, [r3, #-160]	; 0xffffff60
 8004346:	ab04      	add	r3, sp, #16
 8004348:	4618      	mov	r0, r3
 800434a:	4632      	mov	r2, r6
 800434c:	2a00      	cmp	r2, #0
 800434e:	dc4e      	bgt.n	80043ee <__kernel_rem_pio2+0x186>
 8004350:	4620      	mov	r0, r4
 8004352:	e9cd 1302 	strd	r1, r3, [sp, #8]
 8004356:	f000 fadf 	bl	8004918 <scalbn>
 800435a:	eeb0 8b40 	vmov.f64	d8, d0
 800435e:	eeb4 0b00 	vmov.f64	d0, #64	; 0x3e000000  0.125
 8004362:	ee28 0b00 	vmul.f64	d0, d8, d0
 8004366:	f000 fa63 	bl	8004830 <floor>
 800436a:	eeb2 7b00 	vmov.f64	d7, #32	; 0x41000000  8.0
 800436e:	eea0 8b47 	vfms.f64	d8, d0, d7
 8004372:	eefd 7bc8 	vcvt.s32.f64	s15, d8
 8004376:	2c00      	cmp	r4, #0
 8004378:	eeb8 0be7 	vcvt.f64.s32	d0, s15
 800437c:	e9dd 1302 	ldrd	r1, r3, [sp, #8]
 8004380:	ee38 8b40 	vsub.f64	d8, d8, d0
 8004384:	ee17 8a90 	vmov	r8, s15
 8004388:	dd46      	ble.n	8004418 <__kernel_rem_pio2+0x1b0>
 800438a:	1e70      	subs	r0, r6, #1
 800438c:	aa04      	add	r2, sp, #16
 800438e:	f1c4 0c18 	rsb	ip, r4, #24
 8004392:	f852 5020 	ldr.w	r5, [r2, r0, lsl #2]
 8004396:	fa45 f20c 	asr.w	r2, r5, ip
 800439a:	4490      	add	r8, r2
 800439c:	fa02 f20c 	lsl.w	r2, r2, ip
 80043a0:	1aad      	subs	r5, r5, r2
 80043a2:	aa04      	add	r2, sp, #16
 80043a4:	f842 5020 	str.w	r5, [r2, r0, lsl #2]
 80043a8:	f1c4 0217 	rsb	r2, r4, #23
 80043ac:	4115      	asrs	r5, r2
 80043ae:	2d00      	cmp	r5, #0
 80043b0:	dd41      	ble.n	8004436 <__kernel_rem_pio2+0x1ce>
 80043b2:	f04f 0c00 	mov.w	ip, #0
 80043b6:	f108 0801 	add.w	r8, r8, #1
 80043ba:	4660      	mov	r0, ip
 80043bc:	f06f 4e7f 	mvn.w	lr, #4278190080	; 0xff000000
 80043c0:	4566      	cmp	r6, ip
 80043c2:	dc69      	bgt.n	8004498 <__kernel_rem_pio2+0x230>
 80043c4:	2c00      	cmp	r4, #0
 80043c6:	dd03      	ble.n	80043d0 <__kernel_rem_pio2+0x168>
 80043c8:	2c01      	cmp	r4, #1
 80043ca:	d076      	beq.n	80044ba <__kernel_rem_pio2+0x252>
 80043cc:	2c02      	cmp	r4, #2
 80043ce:	d07f      	beq.n	80044d0 <__kernel_rem_pio2+0x268>
 80043d0:	2d02      	cmp	r5, #2
 80043d2:	d130      	bne.n	8004436 <__kernel_rem_pio2+0x1ce>
 80043d4:	eeb7 0b00 	vmov.f64	d0, #112	; 0x3f800000  1.0
 80043d8:	ee30 8b48 	vsub.f64	d8, d0, d8
 80043dc:	b358      	cbz	r0, 8004436 <__kernel_rem_pio2+0x1ce>
 80043de:	4620      	mov	r0, r4
 80043e0:	9102      	str	r1, [sp, #8]
 80043e2:	f000 fa99 	bl	8004918 <scalbn>
 80043e6:	9902      	ldr	r1, [sp, #8]
 80043e8:	ee38 8b40 	vsub.f64	d8, d8, d0
 80043ec:	e023      	b.n	8004436 <__kernel_rem_pio2+0x1ce>
 80043ee:	ee20 7b09 	vmul.f64	d7, d0, d9
 80043f2:	eebd 7bc7 	vcvt.s32.f64	s14, d7
 80043f6:	3a01      	subs	r2, #1
 80043f8:	eeb8 7bc7 	vcvt.f64.s32	d7, s14
 80043fc:	ad68      	add	r5, sp, #416	; 0x1a0
 80043fe:	eea7 0b4a 	vfms.f64	d0, d7, d10
 8004402:	eebd 0bc0 	vcvt.s32.f64	s0, d0
 8004406:	eb05 05c2 	add.w	r5, r5, r2, lsl #3
 800440a:	eca0 0a01 	vstmia	r0!, {s0}
 800440e:	ed95 0b00 	vldr	d0, [r5]
 8004412:	ee37 0b00 	vadd.f64	d0, d7, d0
 8004416:	e799      	b.n	800434c <__kernel_rem_pio2+0xe4>
 8004418:	d105      	bne.n	8004426 <__kernel_rem_pio2+0x1be>
 800441a:	1e72      	subs	r2, r6, #1
 800441c:	a804      	add	r0, sp, #16
 800441e:	f850 5022 	ldr.w	r5, [r0, r2, lsl #2]
 8004422:	15ed      	asrs	r5, r5, #23
 8004424:	e7c3      	b.n	80043ae <__kernel_rem_pio2+0x146>
 8004426:	eeb6 7b00 	vmov.f64	d7, #96	; 0x3f000000  0.5
 800442a:	eeb4 8bc7 	vcmpe.f64	d8, d7
 800442e:	eef1 fa10 	vmrs	APSR_nzcv, fpscr
 8004432:	da2f      	bge.n	8004494 <__kernel_rem_pio2+0x22c>
 8004434:	2500      	movs	r5, #0
 8004436:	eeb5 8b40 	vcmp.f64	d8, #0.0
 800443a:	eef1 fa10 	vmrs	APSR_nzcv, fpscr
 800443e:	f040 8087 	bne.w	8004550 <__kernel_rem_pio2+0x2e8>
 8004442:	1e73      	subs	r3, r6, #1
 8004444:	4618      	mov	r0, r3
 8004446:	f04f 0c00 	mov.w	ip, #0
 800444a:	4548      	cmp	r0, r9
 800444c:	da47      	bge.n	80044de <__kernel_rem_pio2+0x276>
 800444e:	f1bc 0f00 	cmp.w	ip, #0
 8004452:	d070      	beq.n	8004536 <__kernel_rem_pio2+0x2ce>
 8004454:	aa04      	add	r2, sp, #16
 8004456:	3c18      	subs	r4, #24
 8004458:	f852 2023 	ldr.w	r2, [r2, r3, lsl #2]
 800445c:	2a00      	cmp	r2, #0
 800445e:	d075      	beq.n	800454c <__kernel_rem_pio2+0x2e4>
 8004460:	eeb7 0b00 	vmov.f64	d0, #112	; 0x3f800000  1.0
 8004464:	4620      	mov	r0, r4
 8004466:	9300      	str	r3, [sp, #0]
 8004468:	f000 fa56 	bl	8004918 <scalbn>
 800446c:	9b00      	ldr	r3, [sp, #0]
 800446e:	ed9f 6b4e 	vldr	d6, [pc, #312]	; 80045a8 <__kernel_rem_pio2+0x340>
 8004472:	461a      	mov	r2, r3
 8004474:	2a00      	cmp	r2, #0
 8004476:	f280 80ac 	bge.w	80045d2 <__kernel_rem_pio2+0x36a>
 800447a:	4619      	mov	r1, r3
 800447c:	2000      	movs	r0, #0
 800447e:	2900      	cmp	r1, #0
 8004480:	f2c0 80cd 	blt.w	800461e <__kernel_rem_pio2+0x3b6>
 8004484:	aa68      	add	r2, sp, #416	; 0x1a0
 8004486:	eb02 04c1 	add.w	r4, r2, r1, lsl #3
 800448a:	ed9f 7b45 	vldr	d7, [pc, #276]	; 80045a0 <__kernel_rem_pio2+0x338>
 800448e:	4e4b      	ldr	r6, [pc, #300]	; (80045bc <__kernel_rem_pio2+0x354>)
 8004490:	2200      	movs	r2, #0
 8004492:	e0b8      	b.n	8004606 <__kernel_rem_pio2+0x39e>
 8004494:	2502      	movs	r5, #2
 8004496:	e78c      	b.n	80043b2 <__kernel_rem_pio2+0x14a>
 8004498:	681a      	ldr	r2, [r3, #0]
 800449a:	b948      	cbnz	r0, 80044b0 <__kernel_rem_pio2+0x248>
 800449c:	b11a      	cbz	r2, 80044a6 <__kernel_rem_pio2+0x23e>
 800449e:	f1c2 7280 	rsb	r2, r2, #16777216	; 0x1000000
 80044a2:	601a      	str	r2, [r3, #0]
 80044a4:	2201      	movs	r2, #1
 80044a6:	f10c 0c01 	add.w	ip, ip, #1
 80044aa:	3304      	adds	r3, #4
 80044ac:	4610      	mov	r0, r2
 80044ae:	e787      	b.n	80043c0 <__kernel_rem_pio2+0x158>
 80044b0:	ebae 0202 	sub.w	r2, lr, r2
 80044b4:	601a      	str	r2, [r3, #0]
 80044b6:	4602      	mov	r2, r0
 80044b8:	e7f5      	b.n	80044a6 <__kernel_rem_pio2+0x23e>
 80044ba:	1e72      	subs	r2, r6, #1
 80044bc:	ab04      	add	r3, sp, #16
 80044be:	f853 3022 	ldr.w	r3, [r3, r2, lsl #2]
 80044c2:	f3c3 0316 	ubfx	r3, r3, #0, #23
 80044c6:	f10d 0c10 	add.w	ip, sp, #16
 80044ca:	f84c 3022 	str.w	r3, [ip, r2, lsl #2]
 80044ce:	e77f      	b.n	80043d0 <__kernel_rem_pio2+0x168>
 80044d0:	1e72      	subs	r2, r6, #1
 80044d2:	ab04      	add	r3, sp, #16
 80044d4:	f853 3022 	ldr.w	r3, [r3, r2, lsl #2]
 80044d8:	f3c3 0315 	ubfx	r3, r3, #0, #22
 80044dc:	e7f3      	b.n	80044c6 <__kernel_rem_pio2+0x25e>
 80044de:	aa04      	add	r2, sp, #16
 80044e0:	f852 2020 	ldr.w	r2, [r2, r0, lsl #2]
 80044e4:	3801      	subs	r0, #1
 80044e6:	ea4c 0c02 	orr.w	ip, ip, r2
 80044ea:	e7ae      	b.n	800444a <__kernel_rem_pio2+0x1e2>
 80044ec:	3001      	adds	r0, #1
 80044ee:	f853 2d04 	ldr.w	r2, [r3, #-4]!
 80044f2:	2a00      	cmp	r2, #0
 80044f4:	d0fa      	beq.n	80044ec <__kernel_rem_pio2+0x284>
 80044f6:	eb06 020b 	add.w	r2, r6, fp
 80044fa:	ad18      	add	r5, sp, #96	; 0x60
 80044fc:	1c73      	adds	r3, r6, #1
 80044fe:	eb05 02c2 	add.w	r2, r5, r2, lsl #3
 8004502:	4406      	add	r6, r0
 8004504:	429e      	cmp	r6, r3
 8004506:	f6ff af19 	blt.w	800433c <__kernel_rem_pio2+0xd4>
 800450a:	f85a 0023 	ldr.w	r0, [sl, r3, lsl #2]
 800450e:	9d00      	ldr	r5, [sp, #0]
 8004510:	ee07 0a90 	vmov	s15, r0
 8004514:	eeb8 7be7 	vcvt.f64.s32	d7, s15
 8004518:	2000      	movs	r0, #0
 800451a:	eca2 7b02 	vstmia	r2!, {d7}
 800451e:	ed9f 7b20 	vldr	d7, [pc, #128]	; 80045a0 <__kernel_rem_pio2+0x338>
 8004522:	4694      	mov	ip, r2
 8004524:	4288      	cmp	r0, r1
 8004526:	dd09      	ble.n	800453c <__kernel_rem_pio2+0x2d4>
 8004528:	a868      	add	r0, sp, #416	; 0x1a0
 800452a:	eb00 00c3 	add.w	r0, r0, r3, lsl #3
 800452e:	ed80 7b00 	vstr	d7, [r0]
 8004532:	3301      	adds	r3, #1
 8004534:	e7e6      	b.n	8004504 <__kernel_rem_pio2+0x29c>
 8004536:	9b01      	ldr	r3, [sp, #4]
 8004538:	2001      	movs	r0, #1
 800453a:	e7d8      	b.n	80044ee <__kernel_rem_pio2+0x286>
 800453c:	ecb5 5b02 	vldmia	r5!, {d5}
 8004540:	ed3c 6b02 	vldmdb	ip!, {d6}
 8004544:	3001      	adds	r0, #1
 8004546:	eea5 7b06 	vfma.f64	d7, d5, d6
 800454a:	e7eb      	b.n	8004524 <__kernel_rem_pio2+0x2bc>
 800454c:	3b01      	subs	r3, #1
 800454e:	e781      	b.n	8004454 <__kernel_rem_pio2+0x1ec>
 8004550:	4260      	negs	r0, r4
 8004552:	eeb0 0b48 	vmov.f64	d0, d8
 8004556:	f000 f9df 	bl	8004918 <scalbn>
 800455a:	ed9f 6b15 	vldr	d6, [pc, #84]	; 80045b0 <__kernel_rem_pio2+0x348>
 800455e:	eeb4 0bc6 	vcmpe.f64	d0, d6
 8004562:	eef1 fa10 	vmrs	APSR_nzcv, fpscr
 8004566:	db2b      	blt.n	80045c0 <__kernel_rem_pio2+0x358>
 8004568:	ed9f 7b0f 	vldr	d7, [pc, #60]	; 80045a8 <__kernel_rem_pio2+0x340>
 800456c:	ee20 7b07 	vmul.f64	d7, d0, d7
 8004570:	eebd 7bc7 	vcvt.s32.f64	s14, d7
 8004574:	aa04      	add	r2, sp, #16
 8004576:	eeb8 5bc7 	vcvt.f64.s32	d5, s14
 800457a:	eea5 0b46 	vfms.f64	d0, d5, d6
 800457e:	eebd 0bc0 	vcvt.s32.f64	s0, d0
 8004582:	a904      	add	r1, sp, #16
 8004584:	ee10 3a10 	vmov	r3, s0
 8004588:	f842 3026 	str.w	r3, [r2, r6, lsl #2]
 800458c:	ee17 2a10 	vmov	r2, s14
 8004590:	1c73      	adds	r3, r6, #1
 8004592:	3418      	adds	r4, #24
 8004594:	f841 2023 	str.w	r2, [r1, r3, lsl #2]
 8004598:	e762      	b.n	8004460 <__kernel_rem_pio2+0x1f8>
 800459a:	bf00      	nop
 800459c:	f3af 8000 	nop.w
	...
 80045ac:	3e700000 	.word	0x3e700000
 80045b0:	00000000 	.word	0x00000000
 80045b4:	41700000 	.word	0x41700000
 80045b8:	08004c30 	.word	0x08004c30
 80045bc:	08004bf0 	.word	0x08004bf0
 80045c0:	eebd 0bc0 	vcvt.s32.f64	s0, d0
 80045c4:	aa04      	add	r2, sp, #16
 80045c6:	ee10 3a10 	vmov	r3, s0
 80045ca:	f842 3026 	str.w	r3, [r2, r6, lsl #2]
 80045ce:	4633      	mov	r3, r6
 80045d0:	e746      	b.n	8004460 <__kernel_rem_pio2+0x1f8>
 80045d2:	a804      	add	r0, sp, #16
 80045d4:	a968      	add	r1, sp, #416	; 0x1a0
 80045d6:	f850 0022 	ldr.w	r0, [r0, r2, lsl #2]
 80045da:	9000      	str	r0, [sp, #0]
 80045dc:	ee07 0a90 	vmov	s15, r0
 80045e0:	eb01 01c2 	add.w	r1, r1, r2, lsl #3
 80045e4:	eeb8 7be7 	vcvt.f64.s32	d7, s15
 80045e8:	3a01      	subs	r2, #1
 80045ea:	ee27 7b00 	vmul.f64	d7, d7, d0
 80045ee:	ee20 0b06 	vmul.f64	d0, d0, d6
 80045f2:	ed81 7b00 	vstr	d7, [r1]
 80045f6:	e73d      	b.n	8004474 <__kernel_rem_pio2+0x20c>
 80045f8:	ecb6 5b02 	vldmia	r6!, {d5}
 80045fc:	ecb4 6b02 	vldmia	r4!, {d6}
 8004600:	3201      	adds	r2, #1
 8004602:	eea5 7b06 	vfma.f64	d7, d5, d6
 8004606:	454a      	cmp	r2, r9
 8004608:	dc01      	bgt.n	800460e <__kernel_rem_pio2+0x3a6>
 800460a:	4290      	cmp	r0, r2
 800460c:	daf4      	bge.n	80045f8 <__kernel_rem_pio2+0x390>
 800460e:	aa40      	add	r2, sp, #256	; 0x100
 8004610:	eb02 02c0 	add.w	r2, r2, r0, lsl #3
 8004614:	ed82 7b00 	vstr	d7, [r2]
 8004618:	3901      	subs	r1, #1
 800461a:	3001      	adds	r0, #1
 800461c:	e72f      	b.n	800447e <__kernel_rem_pio2+0x216>
 800461e:	9aa0      	ldr	r2, [sp, #640]	; 0x280
 8004620:	2a02      	cmp	r2, #2
 8004622:	dc0a      	bgt.n	800463a <__kernel_rem_pio2+0x3d2>
 8004624:	2a00      	cmp	r2, #0
 8004626:	dc5a      	bgt.n	80046de <__kernel_rem_pio2+0x476>
 8004628:	d039      	beq.n	800469e <__kernel_rem_pio2+0x436>
 800462a:	f008 0007 	and.w	r0, r8, #7
 800462e:	f50d 7d11 	add.w	sp, sp, #580	; 0x244
 8004632:	ecbd 8b06 	vpop	{d8-d10}
 8004636:	e8bd 8ff0 	ldmia.w	sp!, {r4, r5, r6, r7, r8, r9, sl, fp, pc}
 800463a:	9aa0      	ldr	r2, [sp, #640]	; 0x280
 800463c:	2a03      	cmp	r2, #3
 800463e:	d1f4      	bne.n	800462a <__kernel_rem_pio2+0x3c2>
 8004640:	aa40      	add	r2, sp, #256	; 0x100
 8004642:	eb02 02c3 	add.w	r2, r2, r3, lsl #3
 8004646:	4611      	mov	r1, r2
 8004648:	4618      	mov	r0, r3
 800464a:	2800      	cmp	r0, #0
 800464c:	f1a1 0108 	sub.w	r1, r1, #8
 8004650:	dc52      	bgt.n	80046f8 <__kernel_rem_pio2+0x490>
 8004652:	4619      	mov	r1, r3
 8004654:	2901      	cmp	r1, #1
 8004656:	f1a2 0208 	sub.w	r2, r2, #8
 800465a:	dc5d      	bgt.n	8004718 <__kernel_rem_pio2+0x4b0>
 800465c:	ed9f 7b40 	vldr	d7, [pc, #256]	; 8004760 <__kernel_rem_pio2+0x4f8>
 8004660:	2b01      	cmp	r3, #1
 8004662:	dc69      	bgt.n	8004738 <__kernel_rem_pio2+0x4d0>
 8004664:	ed9d 5b40 	vldr	d5, [sp, #256]	; 0x100
 8004668:	ed9d 6b42 	vldr	d6, [sp, #264]	; 0x108
 800466c:	2d00      	cmp	r5, #0
 800466e:	d16c      	bne.n	800474a <__kernel_rem_pio2+0x4e2>
 8004670:	ed87 5b00 	vstr	d5, [r7]
 8004674:	ed87 6b02 	vstr	d6, [r7, #8]
 8004678:	ed87 7b04 	vstr	d7, [r7, #16]
 800467c:	e7d5      	b.n	800462a <__kernel_rem_pio2+0x3c2>
 800467e:	aa40      	add	r2, sp, #256	; 0x100
 8004680:	eb02 02c3 	add.w	r2, r2, r3, lsl #3
 8004684:	ed92 6b00 	vldr	d6, [r2]
 8004688:	3b01      	subs	r3, #1
 800468a:	ee37 7b06 	vadd.f64	d7, d7, d6
 800468e:	2b00      	cmp	r3, #0
 8004690:	daf5      	bge.n	800467e <__kernel_rem_pio2+0x416>
 8004692:	b10d      	cbz	r5, 8004698 <__kernel_rem_pio2+0x430>
 8004694:	eeb1 7b47 	vneg.f64	d7, d7
 8004698:	ed87 7b00 	vstr	d7, [r7]
 800469c:	e7c5      	b.n	800462a <__kernel_rem_pio2+0x3c2>
 800469e:	ed9f 7b30 	vldr	d7, [pc, #192]	; 8004760 <__kernel_rem_pio2+0x4f8>
 80046a2:	e7f4      	b.n	800468e <__kernel_rem_pio2+0x426>
 80046a4:	a940      	add	r1, sp, #256	; 0x100
 80046a6:	eb01 01c2 	add.w	r1, r1, r2, lsl #3
 80046aa:	ed91 7b00 	vldr	d7, [r1]
 80046ae:	3a01      	subs	r2, #1
 80046b0:	ee36 6b07 	vadd.f64	d6, d6, d7
 80046b4:	2a00      	cmp	r2, #0
 80046b6:	daf5      	bge.n	80046a4 <__kernel_rem_pio2+0x43c>
 80046b8:	b1ad      	cbz	r5, 80046e6 <__kernel_rem_pio2+0x47e>
 80046ba:	eeb1 7b46 	vneg.f64	d7, d6
 80046be:	ed87 7b00 	vstr	d7, [r7]
 80046c2:	ed9d 7b40 	vldr	d7, [sp, #256]	; 0x100
 80046c6:	a942      	add	r1, sp, #264	; 0x108
 80046c8:	2201      	movs	r2, #1
 80046ca:	ee37 7b46 	vsub.f64	d7, d7, d6
 80046ce:	4293      	cmp	r3, r2
 80046d0:	da0c      	bge.n	80046ec <__kernel_rem_pio2+0x484>
 80046d2:	b10d      	cbz	r5, 80046d8 <__kernel_rem_pio2+0x470>
 80046d4:	eeb1 7b47 	vneg.f64	d7, d7
 80046d8:	ed87 7b02 	vstr	d7, [r7, #8]
 80046dc:	e7a5      	b.n	800462a <__kernel_rem_pio2+0x3c2>
 80046de:	ed9f 6b20 	vldr	d6, [pc, #128]	; 8004760 <__kernel_rem_pio2+0x4f8>
 80046e2:	461a      	mov	r2, r3
 80046e4:	e7e6      	b.n	80046b4 <__kernel_rem_pio2+0x44c>
 80046e6:	eeb0 7b46 	vmov.f64	d7, d6
 80046ea:	e7e8      	b.n	80046be <__kernel_rem_pio2+0x456>
 80046ec:	ecb1 6b02 	vldmia	r1!, {d6}
 80046f0:	3201      	adds	r2, #1
 80046f2:	ee37 7b06 	vadd.f64	d7, d7, d6
 80046f6:	e7ea      	b.n	80046ce <__kernel_rem_pio2+0x466>
 80046f8:	ed91 7b00 	vldr	d7, [r1]
 80046fc:	ed91 5b02 	vldr	d5, [r1, #8]
 8004700:	3801      	subs	r0, #1
 8004702:	ee37 6b05 	vadd.f64	d6, d7, d5
 8004706:	ee37 7b46 	vsub.f64	d7, d7, d6
 800470a:	ed81 6b00 	vstr	d6, [r1]
 800470e:	ee37 7b05 	vadd.f64	d7, d7, d5
 8004712:	ed81 7b02 	vstr	d7, [r1, #8]
 8004716:	e798      	b.n	800464a <__kernel_rem_pio2+0x3e2>
 8004718:	ed92 7b00 	vldr	d7, [r2]
 800471c:	ed92 5b02 	vldr	d5, [r2, #8]
 8004720:	3901      	subs	r1, #1
 8004722:	ee37 6b05 	vadd.f64	d6, d7, d5
 8004726:	ee37 7b46 	vsub.f64	d7, d7, d6
 800472a:	ed82 6b00 	vstr	d6, [r2]
 800472e:	ee37 7b05 	vadd.f64	d7, d7, d5
 8004732:	ed82 7b02 	vstr	d7, [r2, #8]
 8004736:	e78d      	b.n	8004654 <__kernel_rem_pio2+0x3ec>
 8004738:	aa40      	add	r2, sp, #256	; 0x100
 800473a:	eb02 02c3 	add.w	r2, r2, r3, lsl #3
 800473e:	ed92 6b00 	vldr	d6, [r2]
 8004742:	3b01      	subs	r3, #1
 8004744:	ee37 7b06 	vadd.f64	d7, d7, d6
 8004748:	e78a      	b.n	8004660 <__kernel_rem_pio2+0x3f8>
 800474a:	eeb1 5b45 	vneg.f64	d5, d5
 800474e:	eeb1 6b46 	vneg.f64	d6, d6
 8004752:	ed87 5b00 	vstr	d5, [r7]
 8004756:	eeb1 7b47 	vneg.f64	d7, d7
 800475a:	ed87 6b02 	vstr	d6, [r7, #8]
 800475e:	e78b      	b.n	8004678 <__kernel_rem_pio2+0x410>
	...

08004768 <__kernel_sin>:
 8004768:	ee10 3a90 	vmov	r3, s1
 800476c:	f023 4300 	bic.w	r3, r3, #2147483648	; 0x80000000
 8004770:	f1b3 5f79 	cmp.w	r3, #1044381696	; 0x3e400000
 8004774:	da04      	bge.n	8004780 <__kernel_sin+0x18>
 8004776:	eefd 7bc0 	vcvt.s32.f64	s15, d0
 800477a:	ee17 3a90 	vmov	r3, s15
 800477e:	b35b      	cbz	r3, 80047d8 <__kernel_sin+0x70>
 8004780:	ee20 6b00 	vmul.f64	d6, d0, d0
 8004784:	ee20 5b06 	vmul.f64	d5, d0, d6
 8004788:	ed9f 7b15 	vldr	d7, [pc, #84]	; 80047e0 <__kernel_sin+0x78>
 800478c:	ed9f 4b16 	vldr	d4, [pc, #88]	; 80047e8 <__kernel_sin+0x80>
 8004790:	eea6 4b07 	vfma.f64	d4, d6, d7
 8004794:	ed9f 7b16 	vldr	d7, [pc, #88]	; 80047f0 <__kernel_sin+0x88>
 8004798:	eea4 7b06 	vfma.f64	d7, d4, d6
 800479c:	ed9f 4b16 	vldr	d4, [pc, #88]	; 80047f8 <__kernel_sin+0x90>
 80047a0:	eea7 4b06 	vfma.f64	d4, d7, d6
 80047a4:	ed9f 7b16 	vldr	d7, [pc, #88]	; 8004800 <__kernel_sin+0x98>
 80047a8:	eea4 7b06 	vfma.f64	d7, d4, d6
 80047ac:	b930      	cbnz	r0, 80047bc <__kernel_sin+0x54>
 80047ae:	ed9f 4b16 	vldr	d4, [pc, #88]	; 8004808 <__kernel_sin+0xa0>
 80047b2:	eea6 4b07 	vfma.f64	d4, d6, d7
 80047b6:	eea4 0b05 	vfma.f64	d0, d4, d5
 80047ba:	4770      	bx	lr
 80047bc:	ee27 7b45 	vnmul.f64	d7, d7, d5
 80047c0:	eeb6 4b00 	vmov.f64	d4, #96	; 0x3f000000  0.5
 80047c4:	eea1 7b04 	vfma.f64	d7, d1, d4
 80047c8:	ee97 1b06 	vfnms.f64	d1, d7, d6
 80047cc:	ed9f 7b10 	vldr	d7, [pc, #64]	; 8004810 <__kernel_sin+0xa8>
 80047d0:	eea5 1b07 	vfma.f64	d1, d5, d7
 80047d4:	ee30 0b41 	vsub.f64	d0, d0, d1
 80047d8:	4770      	bx	lr
 80047da:	bf00      	nop
 80047dc:	f3af 8000 	nop.w
 80047e0:	5acfd57c 	.word	0x5acfd57c
 80047e4:	3de5d93a 	.word	0x3de5d93a
 80047e8:	8a2b9ceb 	.word	0x8a2b9ceb
 80047ec:	be5ae5e6 	.word	0xbe5ae5e6
 80047f0:	57b1fe7d 	.word	0x57b1fe7d
 80047f4:	3ec71de3 	.word	0x3ec71de3
 80047f8:	19c161d5 	.word	0x19c161d5
 80047fc:	bf2a01a0 	.word	0xbf2a01a0
 8004800:	1110f8a6 	.word	0x1110f8a6
 8004804:	3f811111 	.word	0x3f811111
 8004808:	55555549 	.word	0x55555549
 800480c:	bfc55555 	.word	0xbfc55555
 8004810:	55555549 	.word	0x55555549
 8004814:	3fc55555 	.word	0x3fc55555

08004818 <fabs>:
 8004818:	ec51 0b10 	vmov	r0, r1, d0
 800481c:	ee10 2a10 	vmov	r2, s0
 8004820:	f021 4300 	bic.w	r3, r1, #2147483648	; 0x80000000
 8004824:	ec43 2b10 	vmov	d0, r2, r3
 8004828:	4770      	bx	lr
 800482a:	0000      	movs	r0, r0
 800482c:	0000      	movs	r0, r0
	...

08004830 <floor>:
 8004830:	ee10 1a90 	vmov	r1, s1
 8004834:	f3c1 520a 	ubfx	r2, r1, #20, #11
 8004838:	f2a2 33ff 	subw	r3, r2, #1023	; 0x3ff
 800483c:	2b13      	cmp	r3, #19
 800483e:	b530      	push	{r4, r5, lr}
 8004840:	ee10 0a10 	vmov	r0, s0
 8004844:	ee10 5a10 	vmov	r5, s0
 8004848:	dc31      	bgt.n	80048ae <floor+0x7e>
 800484a:	2b00      	cmp	r3, #0
 800484c:	da15      	bge.n	800487a <floor+0x4a>
 800484e:	ed9f 7b2e 	vldr	d7, [pc, #184]	; 8004908 <floor+0xd8>
 8004852:	ee30 0b07 	vadd.f64	d0, d0, d7
 8004856:	eeb5 0bc0 	vcmpe.f64	d0, #0.0
 800485a:	eef1 fa10 	vmrs	APSR_nzcv, fpscr
 800485e:	dd07      	ble.n	8004870 <floor+0x40>
 8004860:	2900      	cmp	r1, #0
 8004862:	da4e      	bge.n	8004902 <floor+0xd2>
 8004864:	f021 4300 	bic.w	r3, r1, #2147483648	; 0x80000000
 8004868:	4318      	orrs	r0, r3
 800486a:	d001      	beq.n	8004870 <floor+0x40>
 800486c:	4928      	ldr	r1, [pc, #160]	; (8004910 <floor+0xe0>)
 800486e:	2000      	movs	r0, #0
 8004870:	460b      	mov	r3, r1
 8004872:	4602      	mov	r2, r0
 8004874:	ec43 2b10 	vmov	d0, r2, r3
 8004878:	e020      	b.n	80048bc <floor+0x8c>
 800487a:	4a26      	ldr	r2, [pc, #152]	; (8004914 <floor+0xe4>)
 800487c:	411a      	asrs	r2, r3
 800487e:	ea01 0402 	and.w	r4, r1, r2
 8004882:	4304      	orrs	r4, r0
 8004884:	d01a      	beq.n	80048bc <floor+0x8c>
 8004886:	ed9f 7b20 	vldr	d7, [pc, #128]	; 8004908 <floor+0xd8>
 800488a:	ee30 0b07 	vadd.f64	d0, d0, d7
 800488e:	eeb5 0bc0 	vcmpe.f64	d0, #0.0
 8004892:	eef1 fa10 	vmrs	APSR_nzcv, fpscr
 8004896:	ddeb      	ble.n	8004870 <floor+0x40>
 8004898:	2900      	cmp	r1, #0
 800489a:	bfbe      	ittt	lt
 800489c:	f44f 1080 	movlt.w	r0, #1048576	; 0x100000
 80048a0:	fa40 f303 	asrlt.w	r3, r0, r3
 80048a4:	18c9      	addlt	r1, r1, r3
 80048a6:	ea21 0102 	bic.w	r1, r1, r2
 80048aa:	2000      	movs	r0, #0
 80048ac:	e7e0      	b.n	8004870 <floor+0x40>
 80048ae:	2b33      	cmp	r3, #51	; 0x33
 80048b0:	dd05      	ble.n	80048be <floor+0x8e>
 80048b2:	f5b3 6f80 	cmp.w	r3, #1024	; 0x400
 80048b6:	d101      	bne.n	80048bc <floor+0x8c>
 80048b8:	ee30 0b00 	vadd.f64	d0, d0, d0
 80048bc:	bd30      	pop	{r4, r5, pc}
 80048be:	f2a2 4413 	subw	r4, r2, #1043	; 0x413
 80048c2:	f04f 32ff 	mov.w	r2, #4294967295
 80048c6:	40e2      	lsrs	r2, r4
 80048c8:	4202      	tst	r2, r0
 80048ca:	d0f7      	beq.n	80048bc <floor+0x8c>
 80048cc:	ed9f 7b0e 	vldr	d7, [pc, #56]	; 8004908 <floor+0xd8>
 80048d0:	ee30 0b07 	vadd.f64	d0, d0, d7
 80048d4:	eeb5 0bc0 	vcmpe.f64	d0, #0.0
 80048d8:	eef1 fa10 	vmrs	APSR_nzcv, fpscr
 80048dc:	ddc8      	ble.n	8004870 <floor+0x40>
 80048de:	2900      	cmp	r1, #0
 80048e0:	da02      	bge.n	80048e8 <floor+0xb8>
 80048e2:	2b14      	cmp	r3, #20
 80048e4:	d103      	bne.n	80048ee <floor+0xbe>
 80048e6:	3101      	adds	r1, #1
 80048e8:	ea20 0002 	bic.w	r0, r0, r2
 80048ec:	e7c0      	b.n	8004870 <floor+0x40>
 80048ee:	2401      	movs	r4, #1
 80048f0:	f1c3 0334 	rsb	r3, r3, #52	; 0x34
 80048f4:	fa04 f303 	lsl.w	r3, r4, r3
 80048f8:	4418      	add	r0, r3
 80048fa:	42a8      	cmp	r0, r5
 80048fc:	bf38      	it	cc
 80048fe:	1909      	addcc	r1, r1, r4
 8004900:	e7f2      	b.n	80048e8 <floor+0xb8>
 8004902:	2000      	movs	r0, #0
 8004904:	4601      	mov	r1, r0
 8004906:	e7b3      	b.n	8004870 <floor+0x40>
 8004908:	8800759c 	.word	0x8800759c
 800490c:	7e37e43c 	.word	0x7e37e43c
 8004910:	bff00000 	.word	0xbff00000
 8004914:	000fffff 	.word	0x000fffff

08004918 <scalbn>:
 8004918:	b082      	sub	sp, #8
 800491a:	ed8d 0b00 	vstr	d0, [sp]
 800491e:	9b01      	ldr	r3, [sp, #4]
 8004920:	f3c3 520a 	ubfx	r2, r3, #20, #11
 8004924:	b9a2      	cbnz	r2, 8004950 <scalbn+0x38>
 8004926:	9a00      	ldr	r2, [sp, #0]
 8004928:	f023 4300 	bic.w	r3, r3, #2147483648	; 0x80000000
 800492c:	4313      	orrs	r3, r2
 800492e:	d03a      	beq.n	80049a6 <scalbn+0x8e>
 8004930:	ed9f 7b35 	vldr	d7, [pc, #212]	; 8004a08 <scalbn+0xf0>
 8004934:	4b40      	ldr	r3, [pc, #256]	; (8004a38 <scalbn+0x120>)
 8004936:	ee20 7b07 	vmul.f64	d7, d0, d7
 800493a:	4298      	cmp	r0, r3
 800493c:	ed8d 7b00 	vstr	d7, [sp]
 8004940:	da11      	bge.n	8004966 <scalbn+0x4e>
 8004942:	ed9f 7b33 	vldr	d7, [pc, #204]	; 8004a10 <scalbn+0xf8>
 8004946:	ed9d 6b00 	vldr	d6, [sp]
 800494a:	ee27 7b06 	vmul.f64	d7, d7, d6
 800494e:	e007      	b.n	8004960 <scalbn+0x48>
 8004950:	f240 71ff 	movw	r1, #2047	; 0x7ff
 8004954:	428a      	cmp	r2, r1
 8004956:	d10a      	bne.n	800496e <scalbn+0x56>
 8004958:	ed9d 7b00 	vldr	d7, [sp]
 800495c:	ee37 7b07 	vadd.f64	d7, d7, d7
 8004960:	ed8d 7b00 	vstr	d7, [sp]
 8004964:	e01f      	b.n	80049a6 <scalbn+0x8e>
 8004966:	9b01      	ldr	r3, [sp, #4]
 8004968:	f3c3 520a 	ubfx	r2, r3, #20, #11
 800496c:	3a36      	subs	r2, #54	; 0x36
 800496e:	4402      	add	r2, r0
 8004970:	f240 71fe 	movw	r1, #2046	; 0x7fe
 8004974:	428a      	cmp	r2, r1
 8004976:	dd0a      	ble.n	800498e <scalbn+0x76>
 8004978:	ed9f 7b27 	vldr	d7, [pc, #156]	; 8004a18 <scalbn+0x100>
 800497c:	ed9f 5b28 	vldr	d5, [pc, #160]	; 8004a20 <scalbn+0x108>
 8004980:	eeb0 6b47 	vmov.f64	d6, d7
 8004984:	9b01      	ldr	r3, [sp, #4]
 8004986:	2b00      	cmp	r3, #0
 8004988:	fe27 7b05 	vselge.f64	d7, d7, d5
 800498c:	e7dd      	b.n	800494a <scalbn+0x32>
 800498e:	2a00      	cmp	r2, #0
 8004990:	dd0d      	ble.n	80049ae <scalbn+0x96>
 8004992:	e9dd 0100 	ldrd	r0, r1, [sp]
 8004996:	f023 43ff 	bic.w	r3, r3, #2139095040	; 0x7f800000
 800499a:	f423 03e0 	bic.w	r3, r3, #7340032	; 0x700000
 800499e:	ea43 5102 	orr.w	r1, r3, r2, lsl #20
 80049a2:	e9cd 0100 	strd	r0, r1, [sp]
 80049a6:	ed9d 0b00 	vldr	d0, [sp]
 80049aa:	b002      	add	sp, #8
 80049ac:	4770      	bx	lr
 80049ae:	f112 0f35 	cmn.w	r2, #53	; 0x35
 80049b2:	da18      	bge.n	80049e6 <scalbn+0xce>
 80049b4:	f24c 3350 	movw	r3, #50000	; 0xc350
 80049b8:	4298      	cmp	r0, r3
 80049ba:	9b01      	ldr	r3, [sp, #4]
 80049bc:	f003 4300 	and.w	r3, r3, #2147483648	; 0x80000000
 80049c0:	dd09      	ble.n	80049d6 <scalbn+0xbe>
 80049c2:	ed9f 7b15 	vldr	d7, [pc, #84]	; 8004a18 <scalbn+0x100>
 80049c6:	ed9f 5b16 	vldr	d5, [pc, #88]	; 8004a20 <scalbn+0x108>
 80049ca:	eeb0 6b47 	vmov.f64	d6, d7
 80049ce:	2b00      	cmp	r3, #0
 80049d0:	fe07 7b05 	vseleq.f64	d7, d7, d5
 80049d4:	e7b9      	b.n	800494a <scalbn+0x32>
 80049d6:	ed9f 7b0e 	vldr	d7, [pc, #56]	; 8004a10 <scalbn+0xf8>
 80049da:	ed9f 5b13 	vldr	d5, [pc, #76]	; 8004a28 <scalbn+0x110>
 80049de:	eeb0 6b47 	vmov.f64	d6, d7
 80049e2:	2b00      	cmp	r3, #0
 80049e4:	e7f4      	b.n	80049d0 <scalbn+0xb8>
 80049e6:	e9dd 0100 	ldrd	r0, r1, [sp]
 80049ea:	f023 43ff 	bic.w	r3, r3, #2139095040	; 0x7f800000
 80049ee:	3236      	adds	r2, #54	; 0x36
 80049f0:	f423 03e0 	bic.w	r3, r3, #7340032	; 0x700000
 80049f4:	ea43 5102 	orr.w	r1, r3, r2, lsl #20
 80049f8:	ed9f 6b0d 	vldr	d6, [pc, #52]	; 8004a30 <scalbn+0x118>
 80049fc:	ec41 0b17 	vmov	d7, r0, r1
 8004a00:	e7a3      	b.n	800494a <scalbn+0x32>
 8004a02:	bf00      	nop
 8004a04:	f3af 8000 	nop.w
 8004a08:	00000000 	.word	0x00000000
 8004a0c:	43500000 	.word	0x43500000
 8004a10:	c2f8f359 	.word	0xc2f8f359
 8004a14:	01a56e1f 	.word	0x01a56e1f
 8004a18:	8800759c 	.word	0x8800759c
 8004a1c:	7e37e43c 	.word	0x7e37e43c
 8004a20:	8800759c 	.word	0x8800759c
 8004a24:	fe37e43c 	.word	0xfe37e43c
 8004a28:	c2f8f359 	.word	0xc2f8f359
 8004a2c:	81a56e1f 	.word	0x81a56e1f
 8004a30:	00000000 	.word	0x00000000
 8004a34:	3c900000 	.word	0x3c900000
 8004a38:	ffff3cb0 	.word	0xffff3cb0

08004a3c <_init>:
 8004a3c:	b5f8      	push	{r3, r4, r5, r6, r7, lr}
 8004a3e:	bf00      	nop
 8004a40:	bcf8      	pop	{r3, r4, r5, r6, r7}
 8004a42:	bc08      	pop	{r3}
 8004a44:	469e      	mov	lr, r3
 8004a46:	4770      	bx	lr

08004a48 <_fini>:
 8004a48:	b5f8      	push	{r3, r4, r5, r6, r7, lr}
 8004a4a:	bf00      	nop
 8004a4c:	bcf8      	pop	{r3, r4, r5, r6, r7}
 8004a4e:	bc08      	pop	{r3}
 8004a50:	469e      	mov	lr, r3
 8004a52:	4770      	bx	lr
